   1              		.syntax unified
   2              		.cpu cortex-m3
   3              		.fpu softvfp
   4              		.eabi_attribute 20, 1
   5              		.eabi_attribute 21, 1
   6              		.eabi_attribute 23, 3
   7              		.eabi_attribute 24, 1
   8              		.eabi_attribute 25, 1
   9              		.eabi_attribute 26, 1
  10              		.eabi_attribute 30, 6
  11              		.eabi_attribute 18, 4
  12              		.thumb
  13              		.file	"stm32f10x_adc.c"
  21              	.Ltext0:
  22              		.cfi_sections	.debug_frame
  23              		.section	.text.ADC_DeInit,"ax",%progbits
  24              		.align	2
  25              		.global	ADC_DeInit
  26              		.thumb
  27              		.thumb_func
  29              	ADC_DeInit:
  30              	.LFB29:
  31              		.file 1 "Libraries/STM32F10x_StdPeriph_Driver/src/stm32f10x_adc.c"
   1:Libraries/STM32F10x_StdPeriph_Driver/src/stm32f10x_adc.c **** /**
   2:Libraries/STM32F10x_StdPeriph_Driver/src/stm32f10x_adc.c ****   ******************************************************************************
   3:Libraries/STM32F10x_StdPeriph_Driver/src/stm32f10x_adc.c ****   * @file    stm32f10x_adc.c
   4:Libraries/STM32F10x_StdPeriph_Driver/src/stm32f10x_adc.c ****   * @author  MCD Application Team
   5:Libraries/STM32F10x_StdPeriph_Driver/src/stm32f10x_adc.c ****   * @version V3.3.0
   6:Libraries/STM32F10x_StdPeriph_Driver/src/stm32f10x_adc.c ****   * @date    04/16/2010
   7:Libraries/STM32F10x_StdPeriph_Driver/src/stm32f10x_adc.c ****   * @brief   This file provides all the ADC firmware functions.
   8:Libraries/STM32F10x_StdPeriph_Driver/src/stm32f10x_adc.c ****   ******************************************************************************
   9:Libraries/STM32F10x_StdPeriph_Driver/src/stm32f10x_adc.c ****   * @copy
  10:Libraries/STM32F10x_StdPeriph_Driver/src/stm32f10x_adc.c ****   *
  11:Libraries/STM32F10x_StdPeriph_Driver/src/stm32f10x_adc.c ****   * THE PRESENT FIRMWARE WHICH IS FOR GUIDANCE ONLY AIMS AT PROVIDING CUSTOMERS
  12:Libraries/STM32F10x_StdPeriph_Driver/src/stm32f10x_adc.c ****   * WITH CODING INFORMATION REGARDING THEIR PRODUCTS IN ORDER FOR THEM TO SAVE
  13:Libraries/STM32F10x_StdPeriph_Driver/src/stm32f10x_adc.c ****   * TIME. AS A RESULT, STMICROELECTRONICS SHALL NOT BE HELD LIABLE FOR ANY
  14:Libraries/STM32F10x_StdPeriph_Driver/src/stm32f10x_adc.c ****   * DIRECT, INDIRECT OR CONSEQUENTIAL DAMAGES WITH RESPECT TO ANY CLAIMS ARISING
  15:Libraries/STM32F10x_StdPeriph_Driver/src/stm32f10x_adc.c ****   * FROM THE CONTENT OF SUCH FIRMWARE AND/OR THE USE MADE BY CUSTOMERS OF THE
  16:Libraries/STM32F10x_StdPeriph_Driver/src/stm32f10x_adc.c ****   * CODING INFORMATION CONTAINED HEREIN IN CONNECTION WITH THEIR PRODUCTS.
  17:Libraries/STM32F10x_StdPeriph_Driver/src/stm32f10x_adc.c ****   *
  18:Libraries/STM32F10x_StdPeriph_Driver/src/stm32f10x_adc.c ****   * <h2><center>&copy; COPYRIGHT 2010 STMicroelectronics</center></h2>
  19:Libraries/STM32F10x_StdPeriph_Driver/src/stm32f10x_adc.c ****   */ 
  20:Libraries/STM32F10x_StdPeriph_Driver/src/stm32f10x_adc.c **** 
  21:Libraries/STM32F10x_StdPeriph_Driver/src/stm32f10x_adc.c **** /* Includes ------------------------------------------------------------------*/
  22:Libraries/STM32F10x_StdPeriph_Driver/src/stm32f10x_adc.c **** #include "stm32f10x_adc.h"
  23:Libraries/STM32F10x_StdPeriph_Driver/src/stm32f10x_adc.c **** #include "stm32f10x_rcc.h"
  24:Libraries/STM32F10x_StdPeriph_Driver/src/stm32f10x_adc.c **** 
  25:Libraries/STM32F10x_StdPeriph_Driver/src/stm32f10x_adc.c **** /** @addtogroup STM32F10x_StdPeriph_Driver
  26:Libraries/STM32F10x_StdPeriph_Driver/src/stm32f10x_adc.c ****   * @{
  27:Libraries/STM32F10x_StdPeriph_Driver/src/stm32f10x_adc.c ****   */
  28:Libraries/STM32F10x_StdPeriph_Driver/src/stm32f10x_adc.c **** 
  29:Libraries/STM32F10x_StdPeriph_Driver/src/stm32f10x_adc.c **** /** @defgroup ADC 
  30:Libraries/STM32F10x_StdPeriph_Driver/src/stm32f10x_adc.c ****   * @brief ADC driver modules
  31:Libraries/STM32F10x_StdPeriph_Driver/src/stm32f10x_adc.c ****   * @{
  32:Libraries/STM32F10x_StdPeriph_Driver/src/stm32f10x_adc.c ****   */
  33:Libraries/STM32F10x_StdPeriph_Driver/src/stm32f10x_adc.c **** 
  34:Libraries/STM32F10x_StdPeriph_Driver/src/stm32f10x_adc.c **** /** @defgroup ADC_Private_TypesDefinitions
  35:Libraries/STM32F10x_StdPeriph_Driver/src/stm32f10x_adc.c ****   * @{
  36:Libraries/STM32F10x_StdPeriph_Driver/src/stm32f10x_adc.c ****   */
  37:Libraries/STM32F10x_StdPeriph_Driver/src/stm32f10x_adc.c **** 
  38:Libraries/STM32F10x_StdPeriph_Driver/src/stm32f10x_adc.c **** /**
  39:Libraries/STM32F10x_StdPeriph_Driver/src/stm32f10x_adc.c ****   * @}
  40:Libraries/STM32F10x_StdPeriph_Driver/src/stm32f10x_adc.c ****   */
  41:Libraries/STM32F10x_StdPeriph_Driver/src/stm32f10x_adc.c **** 
  42:Libraries/STM32F10x_StdPeriph_Driver/src/stm32f10x_adc.c **** /** @defgroup ADC_Private_Defines
  43:Libraries/STM32F10x_StdPeriph_Driver/src/stm32f10x_adc.c ****   * @{
  44:Libraries/STM32F10x_StdPeriph_Driver/src/stm32f10x_adc.c ****   */
  45:Libraries/STM32F10x_StdPeriph_Driver/src/stm32f10x_adc.c **** 
  46:Libraries/STM32F10x_StdPeriph_Driver/src/stm32f10x_adc.c **** /* ADC DISCNUM mask */
  47:Libraries/STM32F10x_StdPeriph_Driver/src/stm32f10x_adc.c **** #define CR1_DISCNUM_Reset           ((uint32_t)0xFFFF1FFF)
  48:Libraries/STM32F10x_StdPeriph_Driver/src/stm32f10x_adc.c **** 
  49:Libraries/STM32F10x_StdPeriph_Driver/src/stm32f10x_adc.c **** /* ADC DISCEN mask */
  50:Libraries/STM32F10x_StdPeriph_Driver/src/stm32f10x_adc.c **** #define CR1_DISCEN_Set              ((uint32_t)0x00000800)
  51:Libraries/STM32F10x_StdPeriph_Driver/src/stm32f10x_adc.c **** #define CR1_DISCEN_Reset            ((uint32_t)0xFFFFF7FF)
  52:Libraries/STM32F10x_StdPeriph_Driver/src/stm32f10x_adc.c **** 
  53:Libraries/STM32F10x_StdPeriph_Driver/src/stm32f10x_adc.c **** /* ADC JAUTO mask */
  54:Libraries/STM32F10x_StdPeriph_Driver/src/stm32f10x_adc.c **** #define CR1_JAUTO_Set               ((uint32_t)0x00000400)
  55:Libraries/STM32F10x_StdPeriph_Driver/src/stm32f10x_adc.c **** #define CR1_JAUTO_Reset             ((uint32_t)0xFFFFFBFF)
  56:Libraries/STM32F10x_StdPeriph_Driver/src/stm32f10x_adc.c **** 
  57:Libraries/STM32F10x_StdPeriph_Driver/src/stm32f10x_adc.c **** /* ADC JDISCEN mask */
  58:Libraries/STM32F10x_StdPeriph_Driver/src/stm32f10x_adc.c **** #define CR1_JDISCEN_Set             ((uint32_t)0x00001000)
  59:Libraries/STM32F10x_StdPeriph_Driver/src/stm32f10x_adc.c **** #define CR1_JDISCEN_Reset           ((uint32_t)0xFFFFEFFF)
  60:Libraries/STM32F10x_StdPeriph_Driver/src/stm32f10x_adc.c **** 
  61:Libraries/STM32F10x_StdPeriph_Driver/src/stm32f10x_adc.c **** /* ADC AWDCH mask */
  62:Libraries/STM32F10x_StdPeriph_Driver/src/stm32f10x_adc.c **** #define CR1_AWDCH_Reset             ((uint32_t)0xFFFFFFE0)
  63:Libraries/STM32F10x_StdPeriph_Driver/src/stm32f10x_adc.c **** 
  64:Libraries/STM32F10x_StdPeriph_Driver/src/stm32f10x_adc.c **** /* ADC Analog watchdog enable mode mask */
  65:Libraries/STM32F10x_StdPeriph_Driver/src/stm32f10x_adc.c **** #define CR1_AWDMode_Reset           ((uint32_t)0xFF3FFDFF)
  66:Libraries/STM32F10x_StdPeriph_Driver/src/stm32f10x_adc.c **** 
  67:Libraries/STM32F10x_StdPeriph_Driver/src/stm32f10x_adc.c **** /* CR1 register Mask */
  68:Libraries/STM32F10x_StdPeriph_Driver/src/stm32f10x_adc.c **** #define CR1_CLEAR_Mask              ((uint32_t)0xFFF0FEFF)
  69:Libraries/STM32F10x_StdPeriph_Driver/src/stm32f10x_adc.c **** 
  70:Libraries/STM32F10x_StdPeriph_Driver/src/stm32f10x_adc.c **** /* ADC ADON mask */
  71:Libraries/STM32F10x_StdPeriph_Driver/src/stm32f10x_adc.c **** #define CR2_ADON_Set                ((uint32_t)0x00000001)
  72:Libraries/STM32F10x_StdPeriph_Driver/src/stm32f10x_adc.c **** #define CR2_ADON_Reset              ((uint32_t)0xFFFFFFFE)
  73:Libraries/STM32F10x_StdPeriph_Driver/src/stm32f10x_adc.c **** 
  74:Libraries/STM32F10x_StdPeriph_Driver/src/stm32f10x_adc.c **** /* ADC DMA mask */
  75:Libraries/STM32F10x_StdPeriph_Driver/src/stm32f10x_adc.c **** #define CR2_DMA_Set                 ((uint32_t)0x00000100)
  76:Libraries/STM32F10x_StdPeriph_Driver/src/stm32f10x_adc.c **** #define CR2_DMA_Reset               ((uint32_t)0xFFFFFEFF)
  77:Libraries/STM32F10x_StdPeriph_Driver/src/stm32f10x_adc.c **** 
  78:Libraries/STM32F10x_StdPeriph_Driver/src/stm32f10x_adc.c **** /* ADC RSTCAL mask */
  79:Libraries/STM32F10x_StdPeriph_Driver/src/stm32f10x_adc.c **** #define CR2_RSTCAL_Set              ((uint32_t)0x00000008)
  80:Libraries/STM32F10x_StdPeriph_Driver/src/stm32f10x_adc.c **** 
  81:Libraries/STM32F10x_StdPeriph_Driver/src/stm32f10x_adc.c **** /* ADC CAL mask */
  82:Libraries/STM32F10x_StdPeriph_Driver/src/stm32f10x_adc.c **** #define CR2_CAL_Set                 ((uint32_t)0x00000004)
  83:Libraries/STM32F10x_StdPeriph_Driver/src/stm32f10x_adc.c **** 
  84:Libraries/STM32F10x_StdPeriph_Driver/src/stm32f10x_adc.c **** /* ADC SWSTART mask */
  85:Libraries/STM32F10x_StdPeriph_Driver/src/stm32f10x_adc.c **** #define CR2_SWSTART_Set             ((uint32_t)0x00400000)
  86:Libraries/STM32F10x_StdPeriph_Driver/src/stm32f10x_adc.c **** 
  87:Libraries/STM32F10x_StdPeriph_Driver/src/stm32f10x_adc.c **** /* ADC EXTTRIG mask */
  88:Libraries/STM32F10x_StdPeriph_Driver/src/stm32f10x_adc.c **** #define CR2_EXTTRIG_Set             ((uint32_t)0x00100000)
  89:Libraries/STM32F10x_StdPeriph_Driver/src/stm32f10x_adc.c **** #define CR2_EXTTRIG_Reset           ((uint32_t)0xFFEFFFFF)
  90:Libraries/STM32F10x_StdPeriph_Driver/src/stm32f10x_adc.c **** 
  91:Libraries/STM32F10x_StdPeriph_Driver/src/stm32f10x_adc.c **** /* ADC Software start mask */
  92:Libraries/STM32F10x_StdPeriph_Driver/src/stm32f10x_adc.c **** #define CR2_EXTTRIG_SWSTART_Set     ((uint32_t)0x00500000)
  93:Libraries/STM32F10x_StdPeriph_Driver/src/stm32f10x_adc.c **** #define CR2_EXTTRIG_SWSTART_Reset   ((uint32_t)0xFFAFFFFF)
  94:Libraries/STM32F10x_StdPeriph_Driver/src/stm32f10x_adc.c **** 
  95:Libraries/STM32F10x_StdPeriph_Driver/src/stm32f10x_adc.c **** /* ADC JEXTSEL mask */
  96:Libraries/STM32F10x_StdPeriph_Driver/src/stm32f10x_adc.c **** #define CR2_JEXTSEL_Reset           ((uint32_t)0xFFFF8FFF)
  97:Libraries/STM32F10x_StdPeriph_Driver/src/stm32f10x_adc.c **** 
  98:Libraries/STM32F10x_StdPeriph_Driver/src/stm32f10x_adc.c **** /* ADC JEXTTRIG mask */
  99:Libraries/STM32F10x_StdPeriph_Driver/src/stm32f10x_adc.c **** #define CR2_JEXTTRIG_Set            ((uint32_t)0x00008000)
 100:Libraries/STM32F10x_StdPeriph_Driver/src/stm32f10x_adc.c **** #define CR2_JEXTTRIG_Reset          ((uint32_t)0xFFFF7FFF)
 101:Libraries/STM32F10x_StdPeriph_Driver/src/stm32f10x_adc.c **** 
 102:Libraries/STM32F10x_StdPeriph_Driver/src/stm32f10x_adc.c **** /* ADC JSWSTART mask */
 103:Libraries/STM32F10x_StdPeriph_Driver/src/stm32f10x_adc.c **** #define CR2_JSWSTART_Set            ((uint32_t)0x00200000)
 104:Libraries/STM32F10x_StdPeriph_Driver/src/stm32f10x_adc.c **** 
 105:Libraries/STM32F10x_StdPeriph_Driver/src/stm32f10x_adc.c **** /* ADC injected software start mask */
 106:Libraries/STM32F10x_StdPeriph_Driver/src/stm32f10x_adc.c **** #define CR2_JEXTTRIG_JSWSTART_Set   ((uint32_t)0x00208000)
 107:Libraries/STM32F10x_StdPeriph_Driver/src/stm32f10x_adc.c **** #define CR2_JEXTTRIG_JSWSTART_Reset ((uint32_t)0xFFDF7FFF)
 108:Libraries/STM32F10x_StdPeriph_Driver/src/stm32f10x_adc.c **** 
 109:Libraries/STM32F10x_StdPeriph_Driver/src/stm32f10x_adc.c **** /* ADC TSPD mask */
 110:Libraries/STM32F10x_StdPeriph_Driver/src/stm32f10x_adc.c **** #define CR2_TSVREFE_Set             ((uint32_t)0x00800000)
 111:Libraries/STM32F10x_StdPeriph_Driver/src/stm32f10x_adc.c **** #define CR2_TSVREFE_Reset           ((uint32_t)0xFF7FFFFF)
 112:Libraries/STM32F10x_StdPeriph_Driver/src/stm32f10x_adc.c **** 
 113:Libraries/STM32F10x_StdPeriph_Driver/src/stm32f10x_adc.c **** /* CR2 register Mask */
 114:Libraries/STM32F10x_StdPeriph_Driver/src/stm32f10x_adc.c **** #define CR2_CLEAR_Mask              ((uint32_t)0xFFF1F7FD)
 115:Libraries/STM32F10x_StdPeriph_Driver/src/stm32f10x_adc.c **** 
 116:Libraries/STM32F10x_StdPeriph_Driver/src/stm32f10x_adc.c **** /* ADC SQx mask */
 117:Libraries/STM32F10x_StdPeriph_Driver/src/stm32f10x_adc.c **** #define SQR3_SQ_Set                 ((uint32_t)0x0000001F)
 118:Libraries/STM32F10x_StdPeriph_Driver/src/stm32f10x_adc.c **** #define SQR2_SQ_Set                 ((uint32_t)0x0000001F)
 119:Libraries/STM32F10x_StdPeriph_Driver/src/stm32f10x_adc.c **** #define SQR1_SQ_Set                 ((uint32_t)0x0000001F)
 120:Libraries/STM32F10x_StdPeriph_Driver/src/stm32f10x_adc.c **** 
 121:Libraries/STM32F10x_StdPeriph_Driver/src/stm32f10x_adc.c **** /* SQR1 register Mask */
 122:Libraries/STM32F10x_StdPeriph_Driver/src/stm32f10x_adc.c **** #define SQR1_CLEAR_Mask             ((uint32_t)0xFF0FFFFF)
 123:Libraries/STM32F10x_StdPeriph_Driver/src/stm32f10x_adc.c **** 
 124:Libraries/STM32F10x_StdPeriph_Driver/src/stm32f10x_adc.c **** /* ADC JSQx mask */
 125:Libraries/STM32F10x_StdPeriph_Driver/src/stm32f10x_adc.c **** #define JSQR_JSQ_Set                ((uint32_t)0x0000001F)
 126:Libraries/STM32F10x_StdPeriph_Driver/src/stm32f10x_adc.c **** 
 127:Libraries/STM32F10x_StdPeriph_Driver/src/stm32f10x_adc.c **** /* ADC JL mask */
 128:Libraries/STM32F10x_StdPeriph_Driver/src/stm32f10x_adc.c **** #define JSQR_JL_Set                 ((uint32_t)0x00300000)
 129:Libraries/STM32F10x_StdPeriph_Driver/src/stm32f10x_adc.c **** #define JSQR_JL_Reset               ((uint32_t)0xFFCFFFFF)
 130:Libraries/STM32F10x_StdPeriph_Driver/src/stm32f10x_adc.c **** 
 131:Libraries/STM32F10x_StdPeriph_Driver/src/stm32f10x_adc.c **** /* ADC SMPx mask */
 132:Libraries/STM32F10x_StdPeriph_Driver/src/stm32f10x_adc.c **** #define SMPR1_SMP_Set               ((uint32_t)0x00000007)
 133:Libraries/STM32F10x_StdPeriph_Driver/src/stm32f10x_adc.c **** #define SMPR2_SMP_Set               ((uint32_t)0x00000007)
 134:Libraries/STM32F10x_StdPeriph_Driver/src/stm32f10x_adc.c **** 
 135:Libraries/STM32F10x_StdPeriph_Driver/src/stm32f10x_adc.c **** /* ADC JDRx registers offset */
 136:Libraries/STM32F10x_StdPeriph_Driver/src/stm32f10x_adc.c **** #define JDR_Offset                  ((uint8_t)0x28)
 137:Libraries/STM32F10x_StdPeriph_Driver/src/stm32f10x_adc.c **** 
 138:Libraries/STM32F10x_StdPeriph_Driver/src/stm32f10x_adc.c **** /* ADC1 DR register base address */
 139:Libraries/STM32F10x_StdPeriph_Driver/src/stm32f10x_adc.c **** #define DR_ADDRESS                  ((uint32_t)0x4001244C)
 140:Libraries/STM32F10x_StdPeriph_Driver/src/stm32f10x_adc.c **** 
 141:Libraries/STM32F10x_StdPeriph_Driver/src/stm32f10x_adc.c **** /**
 142:Libraries/STM32F10x_StdPeriph_Driver/src/stm32f10x_adc.c ****   * @}
 143:Libraries/STM32F10x_StdPeriph_Driver/src/stm32f10x_adc.c ****   */
 144:Libraries/STM32F10x_StdPeriph_Driver/src/stm32f10x_adc.c **** 
 145:Libraries/STM32F10x_StdPeriph_Driver/src/stm32f10x_adc.c **** /** @defgroup ADC_Private_Macros
 146:Libraries/STM32F10x_StdPeriph_Driver/src/stm32f10x_adc.c ****   * @{
 147:Libraries/STM32F10x_StdPeriph_Driver/src/stm32f10x_adc.c ****   */
 148:Libraries/STM32F10x_StdPeriph_Driver/src/stm32f10x_adc.c **** 
 149:Libraries/STM32F10x_StdPeriph_Driver/src/stm32f10x_adc.c **** /**
 150:Libraries/STM32F10x_StdPeriph_Driver/src/stm32f10x_adc.c ****   * @}
 151:Libraries/STM32F10x_StdPeriph_Driver/src/stm32f10x_adc.c ****   */
 152:Libraries/STM32F10x_StdPeriph_Driver/src/stm32f10x_adc.c **** 
 153:Libraries/STM32F10x_StdPeriph_Driver/src/stm32f10x_adc.c **** /** @defgroup ADC_Private_Variables
 154:Libraries/STM32F10x_StdPeriph_Driver/src/stm32f10x_adc.c ****   * @{
 155:Libraries/STM32F10x_StdPeriph_Driver/src/stm32f10x_adc.c ****   */
 156:Libraries/STM32F10x_StdPeriph_Driver/src/stm32f10x_adc.c **** 
 157:Libraries/STM32F10x_StdPeriph_Driver/src/stm32f10x_adc.c **** /**
 158:Libraries/STM32F10x_StdPeriph_Driver/src/stm32f10x_adc.c ****   * @}
 159:Libraries/STM32F10x_StdPeriph_Driver/src/stm32f10x_adc.c ****   */
 160:Libraries/STM32F10x_StdPeriph_Driver/src/stm32f10x_adc.c **** 
 161:Libraries/STM32F10x_StdPeriph_Driver/src/stm32f10x_adc.c **** /** @defgroup ADC_Private_FunctionPrototypes
 162:Libraries/STM32F10x_StdPeriph_Driver/src/stm32f10x_adc.c ****   * @{
 163:Libraries/STM32F10x_StdPeriph_Driver/src/stm32f10x_adc.c ****   */
 164:Libraries/STM32F10x_StdPeriph_Driver/src/stm32f10x_adc.c **** 
 165:Libraries/STM32F10x_StdPeriph_Driver/src/stm32f10x_adc.c **** /**
 166:Libraries/STM32F10x_StdPeriph_Driver/src/stm32f10x_adc.c ****   * @}
 167:Libraries/STM32F10x_StdPeriph_Driver/src/stm32f10x_adc.c ****   */
 168:Libraries/STM32F10x_StdPeriph_Driver/src/stm32f10x_adc.c **** 
 169:Libraries/STM32F10x_StdPeriph_Driver/src/stm32f10x_adc.c **** /** @defgroup ADC_Private_Functions
 170:Libraries/STM32F10x_StdPeriph_Driver/src/stm32f10x_adc.c ****   * @{
 171:Libraries/STM32F10x_StdPeriph_Driver/src/stm32f10x_adc.c ****   */
 172:Libraries/STM32F10x_StdPeriph_Driver/src/stm32f10x_adc.c **** 
 173:Libraries/STM32F10x_StdPeriph_Driver/src/stm32f10x_adc.c **** /**
 174:Libraries/STM32F10x_StdPeriph_Driver/src/stm32f10x_adc.c ****   * @brief  Deinitializes the ADCx peripheral registers to their default reset values.
 175:Libraries/STM32F10x_StdPeriph_Driver/src/stm32f10x_adc.c ****   * @param  ADCx: where x can be 1, 2 or 3 to select the ADC peripheral.
 176:Libraries/STM32F10x_StdPeriph_Driver/src/stm32f10x_adc.c ****   * @retval None
 177:Libraries/STM32F10x_StdPeriph_Driver/src/stm32f10x_adc.c ****   */
 178:Libraries/STM32F10x_StdPeriph_Driver/src/stm32f10x_adc.c **** void ADC_DeInit(ADC_TypeDef* ADCx)
 179:Libraries/STM32F10x_StdPeriph_Driver/src/stm32f10x_adc.c **** {
  32              		.loc 1 179 0
  33              		.cfi_startproc
  34              		@ args = 0, pretend = 0, frame = 8
  35              		@ frame_needed = 1, uses_anonymous_args = 0
  36 0000 80B5     		push	{r7, lr}
  37              	.LCFI0:
  38              		.cfi_def_cfa_offset 8
  39 0002 82B0     		sub	sp, sp, #8
  40              	.LCFI1:
  41              		.cfi_def_cfa_offset 16
  42 0004 00AF     		add	r7, sp, #0
  43              		.cfi_offset 14, -4
  44              		.cfi_offset 7, -8
  45              	.LCFI2:
  46              		.cfi_def_cfa_register 7
  47 0006 7860     		str	r0, [r7, #4]
 180:Libraries/STM32F10x_StdPeriph_Driver/src/stm32f10x_adc.c ****   /* Check the parameters */
 181:Libraries/STM32F10x_StdPeriph_Driver/src/stm32f10x_adc.c ****   assert_param(IS_ADC_ALL_PERIPH(ADCx));
 182:Libraries/STM32F10x_StdPeriph_Driver/src/stm32f10x_adc.c ****   
 183:Libraries/STM32F10x_StdPeriph_Driver/src/stm32f10x_adc.c ****   if (ADCx == ADC1)
  48              		.loc 1 183 0
  49 0008 7A68     		ldr	r2, [r7, #4]
  50 000a 42F20043 		movw	r3, #:lower16:1073816576
  51 000e C4F20103 		movt	r3, #:upper16:1073816576
  52 0012 9A42     		cmp	r2, r3
  53 0014 12D1     		bne	.L2
 184:Libraries/STM32F10x_StdPeriph_Driver/src/stm32f10x_adc.c ****   {
 185:Libraries/STM32F10x_StdPeriph_Driver/src/stm32f10x_adc.c ****     /* Enable ADC1 reset state */
 186:Libraries/STM32F10x_StdPeriph_Driver/src/stm32f10x_adc.c ****     RCC_APB2PeriphResetCmd(RCC_APB2Periph_ADC1, ENABLE);
  54              		.loc 1 186 0
  55 0016 4FF40070 		mov	r0, #512
  56 001a 4FF00101 		mov	r1, #1
  57 001e 40F20003 		movw	r3, #:lower16:RCC_APB2PeriphResetCmd
  58 0022 C0F20003 		movt	r3, #:upper16:RCC_APB2PeriphResetCmd
  59 0026 9847     		blx	r3
 187:Libraries/STM32F10x_StdPeriph_Driver/src/stm32f10x_adc.c ****     /* Release ADC1 from reset state */
 188:Libraries/STM32F10x_StdPeriph_Driver/src/stm32f10x_adc.c ****     RCC_APB2PeriphResetCmd(RCC_APB2Periph_ADC1, DISABLE);
  60              		.loc 1 188 0
  61 0028 4FF40070 		mov	r0, #512
  62 002c 4FF00001 		mov	r1, #0
  63 0030 40F20003 		movw	r3, #:lower16:RCC_APB2PeriphResetCmd
  64 0034 C0F20003 		movt	r3, #:upper16:RCC_APB2PeriphResetCmd
  65 0038 9847     		blx	r3
  66 003a 32E0     		b	.L5
  67              	.L2:
 189:Libraries/STM32F10x_StdPeriph_Driver/src/stm32f10x_adc.c ****   }
 190:Libraries/STM32F10x_StdPeriph_Driver/src/stm32f10x_adc.c ****   else if (ADCx == ADC2)
  68              		.loc 1 190 0
  69 003c 7A68     		ldr	r2, [r7, #4]
  70 003e 42F60003 		movw	r3, #:lower16:1073817600
  71 0042 C4F20103 		movt	r3, #:upper16:1073817600
  72 0046 9A42     		cmp	r2, r3
  73 0048 12D1     		bne	.L4
 191:Libraries/STM32F10x_StdPeriph_Driver/src/stm32f10x_adc.c ****   {
 192:Libraries/STM32F10x_StdPeriph_Driver/src/stm32f10x_adc.c ****     /* Enable ADC2 reset state */
 193:Libraries/STM32F10x_StdPeriph_Driver/src/stm32f10x_adc.c ****     RCC_APB2PeriphResetCmd(RCC_APB2Periph_ADC2, ENABLE);
  74              		.loc 1 193 0
  75 004a 4FF48060 		mov	r0, #1024
  76 004e 4FF00101 		mov	r1, #1
  77 0052 40F20003 		movw	r3, #:lower16:RCC_APB2PeriphResetCmd
  78 0056 C0F20003 		movt	r3, #:upper16:RCC_APB2PeriphResetCmd
  79 005a 9847     		blx	r3
 194:Libraries/STM32F10x_StdPeriph_Driver/src/stm32f10x_adc.c ****     /* Release ADC2 from reset state */
 195:Libraries/STM32F10x_StdPeriph_Driver/src/stm32f10x_adc.c ****     RCC_APB2PeriphResetCmd(RCC_APB2Periph_ADC2, DISABLE);
  80              		.loc 1 195 0
  81 005c 4FF48060 		mov	r0, #1024
  82 0060 4FF00001 		mov	r1, #0
  83 0064 40F20003 		movw	r3, #:lower16:RCC_APB2PeriphResetCmd
  84 0068 C0F20003 		movt	r3, #:upper16:RCC_APB2PeriphResetCmd
  85 006c 9847     		blx	r3
  86 006e 18E0     		b	.L5
  87              	.L4:
 196:Libraries/STM32F10x_StdPeriph_Driver/src/stm32f10x_adc.c ****   }
 197:Libraries/STM32F10x_StdPeriph_Driver/src/stm32f10x_adc.c ****   else
 198:Libraries/STM32F10x_StdPeriph_Driver/src/stm32f10x_adc.c ****   {
 199:Libraries/STM32F10x_StdPeriph_Driver/src/stm32f10x_adc.c ****     if (ADCx == ADC3)
  88              		.loc 1 199 0
  89 0070 7A68     		ldr	r2, [r7, #4]
  90 0072 43F60043 		movw	r3, #:lower16:1073822720
  91 0076 C4F20103 		movt	r3, #:upper16:1073822720
  92 007a 9A42     		cmp	r2, r3
  93 007c 11D1     		bne	.L5
 200:Libraries/STM32F10x_StdPeriph_Driver/src/stm32f10x_adc.c ****     {
 201:Libraries/STM32F10x_StdPeriph_Driver/src/stm32f10x_adc.c ****       /* Enable ADC3 reset state */
 202:Libraries/STM32F10x_StdPeriph_Driver/src/stm32f10x_adc.c ****       RCC_APB2PeriphResetCmd(RCC_APB2Periph_ADC3, ENABLE);
  94              		.loc 1 202 0
  95 007e 4FF40040 		mov	r0, #32768
  96 0082 4FF00101 		mov	r1, #1
  97 0086 40F20003 		movw	r3, #:lower16:RCC_APB2PeriphResetCmd
  98 008a C0F20003 		movt	r3, #:upper16:RCC_APB2PeriphResetCmd
  99 008e 9847     		blx	r3
 203:Libraries/STM32F10x_StdPeriph_Driver/src/stm32f10x_adc.c ****       /* Release ADC3 from reset state */
 204:Libraries/STM32F10x_StdPeriph_Driver/src/stm32f10x_adc.c ****       RCC_APB2PeriphResetCmd(RCC_APB2Periph_ADC3, DISABLE);
 100              		.loc 1 204 0
 101 0090 4FF40040 		mov	r0, #32768
 102 0094 4FF00001 		mov	r1, #0
 103 0098 40F20003 		movw	r3, #:lower16:RCC_APB2PeriphResetCmd
 104 009c C0F20003 		movt	r3, #:upper16:RCC_APB2PeriphResetCmd
 105 00a0 9847     		blx	r3
 106              	.L5:
 205:Libraries/STM32F10x_StdPeriph_Driver/src/stm32f10x_adc.c ****     }
 206:Libraries/STM32F10x_StdPeriph_Driver/src/stm32f10x_adc.c ****   }
 207:Libraries/STM32F10x_StdPeriph_Driver/src/stm32f10x_adc.c **** }
 107              		.loc 1 207 0
 108 00a2 07F10807 		add	r7, r7, #8
 109 00a6 BD46     		mov	sp, r7
 110 00a8 80BD     		pop	{r7, pc}
 111              		.cfi_endproc
 112              	.LFE29:
 114 00aa 00BF     		.section	.text.ADC_Init,"ax",%progbits
 115              		.align	2
 116              		.global	ADC_Init
 117              		.thumb
 118              		.thumb_func
 120              	ADC_Init:
 121              	.LFB30:
 208:Libraries/STM32F10x_StdPeriph_Driver/src/stm32f10x_adc.c **** 
 209:Libraries/STM32F10x_StdPeriph_Driver/src/stm32f10x_adc.c **** /**
 210:Libraries/STM32F10x_StdPeriph_Driver/src/stm32f10x_adc.c ****   * @brief  Initializes the ADCx peripheral according to the specified parameters
 211:Libraries/STM32F10x_StdPeriph_Driver/src/stm32f10x_adc.c ****   *   in the ADC_InitStruct.
 212:Libraries/STM32F10x_StdPeriph_Driver/src/stm32f10x_adc.c ****   * @param  ADCx: where x can be 1, 2 or 3 to select the ADC peripheral.
 213:Libraries/STM32F10x_StdPeriph_Driver/src/stm32f10x_adc.c ****   * @param  ADC_InitStruct: pointer to an ADC_InitTypeDef structure that contains
 214:Libraries/STM32F10x_StdPeriph_Driver/src/stm32f10x_adc.c ****   *   the configuration information for the specified ADC peripheral.
 215:Libraries/STM32F10x_StdPeriph_Driver/src/stm32f10x_adc.c ****   * @retval None
 216:Libraries/STM32F10x_StdPeriph_Driver/src/stm32f10x_adc.c ****   */
 217:Libraries/STM32F10x_StdPeriph_Driver/src/stm32f10x_adc.c **** void ADC_Init(ADC_TypeDef* ADCx, ADC_InitTypeDef* ADC_InitStruct)
 218:Libraries/STM32F10x_StdPeriph_Driver/src/stm32f10x_adc.c **** {
 122              		.loc 1 218 0
 123              		.cfi_startproc
 124              		@ args = 0, pretend = 0, frame = 16
 125              		@ frame_needed = 1, uses_anonymous_args = 0
 126              		@ link register save eliminated.
 127 0000 80B4     		push	{r7}
 128              	.LCFI3:
 129              		.cfi_def_cfa_offset 4
 130 0002 85B0     		sub	sp, sp, #20
 131              	.LCFI4:
 132              		.cfi_def_cfa_offset 24
 133 0004 00AF     		add	r7, sp, #0
 134              		.cfi_offset 7, -4
 135              	.LCFI5:
 136              		.cfi_def_cfa_register 7
 137 0006 7860     		str	r0, [r7, #4]
 138 0008 3960     		str	r1, [r7, #0]
 219:Libraries/STM32F10x_StdPeriph_Driver/src/stm32f10x_adc.c ****   uint32_t tmpreg1 = 0;
 139              		.loc 1 219 0
 140 000a 4FF00003 		mov	r3, #0
 141 000e BB60     		str	r3, [r7, #8]
 220:Libraries/STM32F10x_StdPeriph_Driver/src/stm32f10x_adc.c ****   uint8_t tmpreg2 = 0;
 142              		.loc 1 220 0
 143 0010 4FF00003 		mov	r3, #0
 144 0014 FB73     		strb	r3, [r7, #15]
 221:Libraries/STM32F10x_StdPeriph_Driver/src/stm32f10x_adc.c ****   /* Check the parameters */
 222:Libraries/STM32F10x_StdPeriph_Driver/src/stm32f10x_adc.c ****   assert_param(IS_ADC_ALL_PERIPH(ADCx));
 223:Libraries/STM32F10x_StdPeriph_Driver/src/stm32f10x_adc.c ****   assert_param(IS_ADC_MODE(ADC_InitStruct->ADC_Mode));
 224:Libraries/STM32F10x_StdPeriph_Driver/src/stm32f10x_adc.c ****   assert_param(IS_FUNCTIONAL_STATE(ADC_InitStruct->ADC_ScanConvMode));
 225:Libraries/STM32F10x_StdPeriph_Driver/src/stm32f10x_adc.c ****   assert_param(IS_FUNCTIONAL_STATE(ADC_InitStruct->ADC_ContinuousConvMode));
 226:Libraries/STM32F10x_StdPeriph_Driver/src/stm32f10x_adc.c ****   assert_param(IS_ADC_EXT_TRIG(ADC_InitStruct->ADC_ExternalTrigConv));   
 227:Libraries/STM32F10x_StdPeriph_Driver/src/stm32f10x_adc.c ****   assert_param(IS_ADC_DATA_ALIGN(ADC_InitStruct->ADC_DataAlign)); 
 228:Libraries/STM32F10x_StdPeriph_Driver/src/stm32f10x_adc.c ****   assert_param(IS_ADC_REGULAR_LENGTH(ADC_InitStruct->ADC_NbrOfChannel));
 229:Libraries/STM32F10x_StdPeriph_Driver/src/stm32f10x_adc.c **** 
 230:Libraries/STM32F10x_StdPeriph_Driver/src/stm32f10x_adc.c ****   /*---------------------------- ADCx CR1 Configuration -----------------*/
 231:Libraries/STM32F10x_StdPeriph_Driver/src/stm32f10x_adc.c ****   /* Get the ADCx CR1 value */
 232:Libraries/STM32F10x_StdPeriph_Driver/src/stm32f10x_adc.c ****   tmpreg1 = ADCx->CR1;
 145              		.loc 1 232 0
 146 0016 7B68     		ldr	r3, [r7, #4]
 147 0018 5B68     		ldr	r3, [r3, #4]
 148 001a BB60     		str	r3, [r7, #8]
 233:Libraries/STM32F10x_StdPeriph_Driver/src/stm32f10x_adc.c ****   /* Clear DUALMOD and SCAN bits */
 234:Libraries/STM32F10x_StdPeriph_Driver/src/stm32f10x_adc.c ****   tmpreg1 &= CR1_CLEAR_Mask;
 149              		.loc 1 234 0
 150 001c BB68     		ldr	r3, [r7, #8]
 151 001e 23F47023 		bic	r3, r3, #983040
 152 0022 23F48073 		bic	r3, r3, #256
 153 0026 BB60     		str	r3, [r7, #8]
 235:Libraries/STM32F10x_StdPeriph_Driver/src/stm32f10x_adc.c ****   /* Configure ADCx: Dual mode and scan conversion mode */
 236:Libraries/STM32F10x_StdPeriph_Driver/src/stm32f10x_adc.c ****   /* Set DUALMOD bits according to ADC_Mode value */
 237:Libraries/STM32F10x_StdPeriph_Driver/src/stm32f10x_adc.c ****   /* Set SCAN bit according to ADC_ScanConvMode value */
 238:Libraries/STM32F10x_StdPeriph_Driver/src/stm32f10x_adc.c ****   tmpreg1 |= (uint32_t)(ADC_InitStruct->ADC_Mode | ((uint32_t)ADC_InitStruct->ADC_ScanConvMode << 8
 154              		.loc 1 238 0
 155 0028 3B68     		ldr	r3, [r7, #0]
 156 002a 1A68     		ldr	r2, [r3, #0]
 157 002c 3B68     		ldr	r3, [r7, #0]
 158 002e 1B79     		ldrb	r3, [r3, #4]	@ zero_extendqisi2
 159 0030 4FEA0323 		lsl	r3, r3, #8
 160 0034 42EA0303 		orr	r3, r2, r3
 161 0038 BA68     		ldr	r2, [r7, #8]
 162 003a 42EA0303 		orr	r3, r2, r3
 163 003e BB60     		str	r3, [r7, #8]
 239:Libraries/STM32F10x_StdPeriph_Driver/src/stm32f10x_adc.c ****   /* Write to ADCx CR1 */
 240:Libraries/STM32F10x_StdPeriph_Driver/src/stm32f10x_adc.c ****   ADCx->CR1 = tmpreg1;
 164              		.loc 1 240 0
 165 0040 7B68     		ldr	r3, [r7, #4]
 166 0042 BA68     		ldr	r2, [r7, #8]
 167 0044 5A60     		str	r2, [r3, #4]
 241:Libraries/STM32F10x_StdPeriph_Driver/src/stm32f10x_adc.c **** 
 242:Libraries/STM32F10x_StdPeriph_Driver/src/stm32f10x_adc.c ****   /*---------------------------- ADCx CR2 Configuration -----------------*/
 243:Libraries/STM32F10x_StdPeriph_Driver/src/stm32f10x_adc.c ****   /* Get the ADCx CR2 value */
 244:Libraries/STM32F10x_StdPeriph_Driver/src/stm32f10x_adc.c ****   tmpreg1 = ADCx->CR2;
 168              		.loc 1 244 0
 169 0046 7B68     		ldr	r3, [r7, #4]
 170 0048 9B68     		ldr	r3, [r3, #8]
 171 004a BB60     		str	r3, [r7, #8]
 245:Libraries/STM32F10x_StdPeriph_Driver/src/stm32f10x_adc.c ****   /* Clear CONT, ALIGN and EXTSEL bits */
 246:Libraries/STM32F10x_StdPeriph_Driver/src/stm32f10x_adc.c ****   tmpreg1 &= CR2_CLEAR_Mask;
 172              		.loc 1 246 0
 173 004c BA68     		ldr	r2, [r7, #8]
 174 004e 4FF2FD73 		movw	r3, #:lower16:-919555
 175 0052 CFF6F173 		movt	r3, #:upper16:-919555
 176 0056 02EA0303 		and	r3, r2, r3
 177 005a BB60     		str	r3, [r7, #8]
 247:Libraries/STM32F10x_StdPeriph_Driver/src/stm32f10x_adc.c ****   /* Configure ADCx: external trigger event and continuous conversion mode */
 248:Libraries/STM32F10x_StdPeriph_Driver/src/stm32f10x_adc.c ****   /* Set ALIGN bit according to ADC_DataAlign value */
 249:Libraries/STM32F10x_StdPeriph_Driver/src/stm32f10x_adc.c ****   /* Set EXTSEL bits according to ADC_ExternalTrigConv value */
 250:Libraries/STM32F10x_StdPeriph_Driver/src/stm32f10x_adc.c ****   /* Set CONT bit according to ADC_ContinuousConvMode value */
 251:Libraries/STM32F10x_StdPeriph_Driver/src/stm32f10x_adc.c ****   tmpreg1 |= (uint32_t)(ADC_InitStruct->ADC_DataAlign | ADC_InitStruct->ADC_ExternalTrigConv |
 178              		.loc 1 251 0
 179 005c 3B68     		ldr	r3, [r7, #0]
 180 005e DA68     		ldr	r2, [r3, #12]
 181 0060 3B68     		ldr	r3, [r7, #0]
 182 0062 9B68     		ldr	r3, [r3, #8]
 183 0064 42EA0302 		orr	r2, r2, r3
 252:Libraries/STM32F10x_StdPeriph_Driver/src/stm32f10x_adc.c ****             ((uint32_t)ADC_InitStruct->ADC_ContinuousConvMode << 1));
 184              		.loc 1 252 0
 185 0068 3B68     		ldr	r3, [r7, #0]
 186 006a 5B79     		ldrb	r3, [r3, #5]	@ zero_extendqisi2
 187 006c 4FEA4303 		lsl	r3, r3, #1
 188              		.loc 1 251 0
 189 0070 42EA0303 		orr	r3, r2, r3
 190 0074 BA68     		ldr	r2, [r7, #8]
 191 0076 42EA0303 		orr	r3, r2, r3
 192 007a BB60     		str	r3, [r7, #8]
 253:Libraries/STM32F10x_StdPeriph_Driver/src/stm32f10x_adc.c ****   /* Write to ADCx CR2 */
 254:Libraries/STM32F10x_StdPeriph_Driver/src/stm32f10x_adc.c ****   ADCx->CR2 = tmpreg1;
 193              		.loc 1 254 0
 194 007c 7B68     		ldr	r3, [r7, #4]
 195 007e BA68     		ldr	r2, [r7, #8]
 196 0080 9A60     		str	r2, [r3, #8]
 255:Libraries/STM32F10x_StdPeriph_Driver/src/stm32f10x_adc.c **** 
 256:Libraries/STM32F10x_StdPeriph_Driver/src/stm32f10x_adc.c ****   /*---------------------------- ADCx SQR1 Configuration -----------------*/
 257:Libraries/STM32F10x_StdPeriph_Driver/src/stm32f10x_adc.c ****   /* Get the ADCx SQR1 value */
 258:Libraries/STM32F10x_StdPeriph_Driver/src/stm32f10x_adc.c ****   tmpreg1 = ADCx->SQR1;
 197              		.loc 1 258 0
 198 0082 7B68     		ldr	r3, [r7, #4]
 199 0084 DB6A     		ldr	r3, [r3, #44]
 200 0086 BB60     		str	r3, [r7, #8]
 259:Libraries/STM32F10x_StdPeriph_Driver/src/stm32f10x_adc.c ****   /* Clear L bits */
 260:Libraries/STM32F10x_StdPeriph_Driver/src/stm32f10x_adc.c ****   tmpreg1 &= SQR1_CLEAR_Mask;
 201              		.loc 1 260 0
 202 0088 BB68     		ldr	r3, [r7, #8]
 203 008a 23F47003 		bic	r3, r3, #15728640
 204 008e BB60     		str	r3, [r7, #8]
 261:Libraries/STM32F10x_StdPeriph_Driver/src/stm32f10x_adc.c ****   /* Configure ADCx: regular channel sequence length */
 262:Libraries/STM32F10x_StdPeriph_Driver/src/stm32f10x_adc.c ****   /* Set L bits according to ADC_NbrOfChannel value */
 263:Libraries/STM32F10x_StdPeriph_Driver/src/stm32f10x_adc.c ****   tmpreg2 |= (uint8_t) (ADC_InitStruct->ADC_NbrOfChannel - (uint8_t)1);
 205              		.loc 1 263 0
 206 0090 3B68     		ldr	r3, [r7, #0]
 207 0092 1B7C     		ldrb	r3, [r3, #16]	@ zero_extendqisi2
 208 0094 03F1FF33 		add	r3, r3, #-1
 209 0098 DAB2     		uxtb	r2, r3
 210 009a FB7B     		ldrb	r3, [r7, #15]
 211 009c 42EA0303 		orr	r3, r2, r3
 212 00a0 FB73     		strb	r3, [r7, #15]
 264:Libraries/STM32F10x_StdPeriph_Driver/src/stm32f10x_adc.c ****   tmpreg1 |= (uint32_t)tmpreg2 << 20;
 213              		.loc 1 264 0
 214 00a2 FB7B     		ldrb	r3, [r7, #15]	@ zero_extendqisi2
 215 00a4 4FEA0353 		lsl	r3, r3, #20
 216 00a8 BA68     		ldr	r2, [r7, #8]
 217 00aa 42EA0303 		orr	r3, r2, r3
 218 00ae BB60     		str	r3, [r7, #8]
 265:Libraries/STM32F10x_StdPeriph_Driver/src/stm32f10x_adc.c ****   /* Write to ADCx SQR1 */
 266:Libraries/STM32F10x_StdPeriph_Driver/src/stm32f10x_adc.c ****   ADCx->SQR1 = tmpreg1;
 219              		.loc 1 266 0
 220 00b0 7B68     		ldr	r3, [r7, #4]
 221 00b2 BA68     		ldr	r2, [r7, #8]
 222 00b4 DA62     		str	r2, [r3, #44]
 267:Libraries/STM32F10x_StdPeriph_Driver/src/stm32f10x_adc.c **** }
 223              		.loc 1 267 0
 224 00b6 07F11407 		add	r7, r7, #20
 225 00ba BD46     		mov	sp, r7
 226 00bc 80BC     		pop	{r7}
 227 00be 7047     		bx	lr
 228              		.cfi_endproc
 229              	.LFE30:
 231              		.section	.text.ADC_StructInit,"ax",%progbits
 232              		.align	2
 233              		.global	ADC_StructInit
 234              		.thumb
 235              		.thumb_func
 237              	ADC_StructInit:
 238              	.LFB31:
 268:Libraries/STM32F10x_StdPeriph_Driver/src/stm32f10x_adc.c **** 
 269:Libraries/STM32F10x_StdPeriph_Driver/src/stm32f10x_adc.c **** /**
 270:Libraries/STM32F10x_StdPeriph_Driver/src/stm32f10x_adc.c ****   * @brief  Fills each ADC_InitStruct member with its default value.
 271:Libraries/STM32F10x_StdPeriph_Driver/src/stm32f10x_adc.c ****   * @param  ADC_InitStruct : pointer to an ADC_InitTypeDef structure which will be initialized.
 272:Libraries/STM32F10x_StdPeriph_Driver/src/stm32f10x_adc.c ****   * @retval None
 273:Libraries/STM32F10x_StdPeriph_Driver/src/stm32f10x_adc.c ****   */
 274:Libraries/STM32F10x_StdPeriph_Driver/src/stm32f10x_adc.c **** void ADC_StructInit(ADC_InitTypeDef* ADC_InitStruct)
 275:Libraries/STM32F10x_StdPeriph_Driver/src/stm32f10x_adc.c **** {
 239              		.loc 1 275 0
 240              		.cfi_startproc
 241              		@ args = 0, pretend = 0, frame = 8
 242              		@ frame_needed = 1, uses_anonymous_args = 0
 243              		@ link register save eliminated.
 244 0000 80B4     		push	{r7}
 245              	.LCFI6:
 246              		.cfi_def_cfa_offset 4
 247 0002 83B0     		sub	sp, sp, #12
 248              	.LCFI7:
 249              		.cfi_def_cfa_offset 16
 250 0004 00AF     		add	r7, sp, #0
 251              		.cfi_offset 7, -4
 252              	.LCFI8:
 253              		.cfi_def_cfa_register 7
 254 0006 7860     		str	r0, [r7, #4]
 276:Libraries/STM32F10x_StdPeriph_Driver/src/stm32f10x_adc.c ****   /* Reset ADC init structure parameters values */
 277:Libraries/STM32F10x_StdPeriph_Driver/src/stm32f10x_adc.c ****   /* Initialize the ADC_Mode member */
 278:Libraries/STM32F10x_StdPeriph_Driver/src/stm32f10x_adc.c ****   ADC_InitStruct->ADC_Mode = ADC_Mode_Independent;
 255              		.loc 1 278 0
 256 0008 7B68     		ldr	r3, [r7, #4]
 257 000a 4FF00002 		mov	r2, #0
 258 000e 1A60     		str	r2, [r3, #0]
 279:Libraries/STM32F10x_StdPeriph_Driver/src/stm32f10x_adc.c ****   /* initialize the ADC_ScanConvMode member */
 280:Libraries/STM32F10x_StdPeriph_Driver/src/stm32f10x_adc.c ****   ADC_InitStruct->ADC_ScanConvMode = DISABLE;
 259              		.loc 1 280 0
 260 0010 7B68     		ldr	r3, [r7, #4]
 261 0012 4FF00002 		mov	r2, #0
 262 0016 1A71     		strb	r2, [r3, #4]
 281:Libraries/STM32F10x_StdPeriph_Driver/src/stm32f10x_adc.c ****   /* Initialize the ADC_ContinuousConvMode member */
 282:Libraries/STM32F10x_StdPeriph_Driver/src/stm32f10x_adc.c ****   ADC_InitStruct->ADC_ContinuousConvMode = DISABLE;
 263              		.loc 1 282 0
 264 0018 7B68     		ldr	r3, [r7, #4]
 265 001a 4FF00002 		mov	r2, #0
 266 001e 5A71     		strb	r2, [r3, #5]
 283:Libraries/STM32F10x_StdPeriph_Driver/src/stm32f10x_adc.c ****   /* Initialize the ADC_ExternalTrigConv member */
 284:Libraries/STM32F10x_StdPeriph_Driver/src/stm32f10x_adc.c ****   ADC_InitStruct->ADC_ExternalTrigConv = ADC_ExternalTrigConv_T1_CC1;
 267              		.loc 1 284 0
 268 0020 7B68     		ldr	r3, [r7, #4]
 269 0022 4FF00002 		mov	r2, #0
 270 0026 9A60     		str	r2, [r3, #8]
 285:Libraries/STM32F10x_StdPeriph_Driver/src/stm32f10x_adc.c ****   /* Initialize the ADC_DataAlign member */
 286:Libraries/STM32F10x_StdPeriph_Driver/src/stm32f10x_adc.c ****   ADC_InitStruct->ADC_DataAlign = ADC_DataAlign_Right;
 271              		.loc 1 286 0
 272 0028 7B68     		ldr	r3, [r7, #4]
 273 002a 4FF00002 		mov	r2, #0
 274 002e DA60     		str	r2, [r3, #12]
 287:Libraries/STM32F10x_StdPeriph_Driver/src/stm32f10x_adc.c ****   /* Initialize the ADC_NbrOfChannel member */
 288:Libraries/STM32F10x_StdPeriph_Driver/src/stm32f10x_adc.c ****   ADC_InitStruct->ADC_NbrOfChannel = 1;
 275              		.loc 1 288 0
 276 0030 7B68     		ldr	r3, [r7, #4]
 277 0032 4FF00102 		mov	r2, #1
 278 0036 1A74     		strb	r2, [r3, #16]
 289:Libraries/STM32F10x_StdPeriph_Driver/src/stm32f10x_adc.c **** }
 279              		.loc 1 289 0
 280 0038 07F10C07 		add	r7, r7, #12
 281 003c BD46     		mov	sp, r7
 282 003e 80BC     		pop	{r7}
 283 0040 7047     		bx	lr
 284              		.cfi_endproc
 285              	.LFE31:
 287 0042 00BF     		.section	.text.ADC_Cmd,"ax",%progbits
 288              		.align	2
 289              		.global	ADC_Cmd
 290              		.thumb
 291              		.thumb_func
 293              	ADC_Cmd:
 294              	.LFB32:
 290:Libraries/STM32F10x_StdPeriph_Driver/src/stm32f10x_adc.c **** 
 291:Libraries/STM32F10x_StdPeriph_Driver/src/stm32f10x_adc.c **** /**
 292:Libraries/STM32F10x_StdPeriph_Driver/src/stm32f10x_adc.c ****   * @brief  Enables or disables the specified ADC peripheral.
 293:Libraries/STM32F10x_StdPeriph_Driver/src/stm32f10x_adc.c ****   * @param  ADCx: where x can be 1, 2 or 3 to select the ADC peripheral.
 294:Libraries/STM32F10x_StdPeriph_Driver/src/stm32f10x_adc.c ****   * @param  NewState: new state of the ADCx peripheral.
 295:Libraries/STM32F10x_StdPeriph_Driver/src/stm32f10x_adc.c ****   *   This parameter can be: ENABLE or DISABLE.
 296:Libraries/STM32F10x_StdPeriph_Driver/src/stm32f10x_adc.c ****   * @retval None
 297:Libraries/STM32F10x_StdPeriph_Driver/src/stm32f10x_adc.c ****   */
 298:Libraries/STM32F10x_StdPeriph_Driver/src/stm32f10x_adc.c **** void ADC_Cmd(ADC_TypeDef* ADCx, FunctionalState NewState)
 299:Libraries/STM32F10x_StdPeriph_Driver/src/stm32f10x_adc.c **** {
 295              		.loc 1 299 0
 296              		.cfi_startproc
 297              		@ args = 0, pretend = 0, frame = 8
 298              		@ frame_needed = 1, uses_anonymous_args = 0
 299              		@ link register save eliminated.
 300 0000 80B4     		push	{r7}
 301              	.LCFI9:
 302              		.cfi_def_cfa_offset 4
 303 0002 83B0     		sub	sp, sp, #12
 304              	.LCFI10:
 305              		.cfi_def_cfa_offset 16
 306 0004 00AF     		add	r7, sp, #0
 307              		.cfi_offset 7, -4
 308              	.LCFI11:
 309              		.cfi_def_cfa_register 7
 310 0006 7860     		str	r0, [r7, #4]
 311 0008 0B46     		mov	r3, r1
 312 000a FB70     		strb	r3, [r7, #3]
 300:Libraries/STM32F10x_StdPeriph_Driver/src/stm32f10x_adc.c ****   /* Check the parameters */
 301:Libraries/STM32F10x_StdPeriph_Driver/src/stm32f10x_adc.c ****   assert_param(IS_ADC_ALL_PERIPH(ADCx));
 302:Libraries/STM32F10x_StdPeriph_Driver/src/stm32f10x_adc.c ****   assert_param(IS_FUNCTIONAL_STATE(NewState));
 303:Libraries/STM32F10x_StdPeriph_Driver/src/stm32f10x_adc.c ****   if (NewState != DISABLE)
 313              		.loc 1 303 0
 314 000c FB78     		ldrb	r3, [r7, #3]	@ zero_extendqisi2
 315 000e 002B     		cmp	r3, #0
 316 0010 06D0     		beq	.L11
 304:Libraries/STM32F10x_StdPeriph_Driver/src/stm32f10x_adc.c ****   {
 305:Libraries/STM32F10x_StdPeriph_Driver/src/stm32f10x_adc.c ****     /* Set the ADON bit to wake up the ADC from power down mode */
 306:Libraries/STM32F10x_StdPeriph_Driver/src/stm32f10x_adc.c ****     ADCx->CR2 |= CR2_ADON_Set;
 317              		.loc 1 306 0
 318 0012 7B68     		ldr	r3, [r7, #4]
 319 0014 9B68     		ldr	r3, [r3, #8]
 320 0016 43F00102 		orr	r2, r3, #1
 321 001a 7B68     		ldr	r3, [r7, #4]
 322 001c 9A60     		str	r2, [r3, #8]
 323 001e 05E0     		b	.L13
 324              	.L11:
 307:Libraries/STM32F10x_StdPeriph_Driver/src/stm32f10x_adc.c ****   }
 308:Libraries/STM32F10x_StdPeriph_Driver/src/stm32f10x_adc.c ****   else
 309:Libraries/STM32F10x_StdPeriph_Driver/src/stm32f10x_adc.c ****   {
 310:Libraries/STM32F10x_StdPeriph_Driver/src/stm32f10x_adc.c ****     /* Disable the selected ADC peripheral */
 311:Libraries/STM32F10x_StdPeriph_Driver/src/stm32f10x_adc.c ****     ADCx->CR2 &= CR2_ADON_Reset;
 325              		.loc 1 311 0
 326 0020 7B68     		ldr	r3, [r7, #4]
 327 0022 9B68     		ldr	r3, [r3, #8]
 328 0024 23F00102 		bic	r2, r3, #1
 329 0028 7B68     		ldr	r3, [r7, #4]
 330 002a 9A60     		str	r2, [r3, #8]
 331              	.L13:
 312:Libraries/STM32F10x_StdPeriph_Driver/src/stm32f10x_adc.c ****   }
 313:Libraries/STM32F10x_StdPeriph_Driver/src/stm32f10x_adc.c **** }
 332              		.loc 1 313 0
 333 002c 07F10C07 		add	r7, r7, #12
 334 0030 BD46     		mov	sp, r7
 335 0032 80BC     		pop	{r7}
 336 0034 7047     		bx	lr
 337              		.cfi_endproc
 338              	.LFE32:
 340 0036 00BF     		.section	.text.ADC_DMACmd,"ax",%progbits
 341              		.align	2
 342              		.global	ADC_DMACmd
 343              		.thumb
 344              		.thumb_func
 346              	ADC_DMACmd:
 347              	.LFB33:
 314:Libraries/STM32F10x_StdPeriph_Driver/src/stm32f10x_adc.c **** 
 315:Libraries/STM32F10x_StdPeriph_Driver/src/stm32f10x_adc.c **** /**
 316:Libraries/STM32F10x_StdPeriph_Driver/src/stm32f10x_adc.c ****   * @brief  Enables or disables the specified ADC DMA request.
 317:Libraries/STM32F10x_StdPeriph_Driver/src/stm32f10x_adc.c ****   * @param  ADCx: where x can be 1 or 3 to select the ADC peripheral.
 318:Libraries/STM32F10x_StdPeriph_Driver/src/stm32f10x_adc.c ****   *   Note: ADC2 hasn't a DMA capability.
 319:Libraries/STM32F10x_StdPeriph_Driver/src/stm32f10x_adc.c ****   * @param  NewState: new state of the selected ADC DMA transfer.
 320:Libraries/STM32F10x_StdPeriph_Driver/src/stm32f10x_adc.c ****   *   This parameter can be: ENABLE or DISABLE.
 321:Libraries/STM32F10x_StdPeriph_Driver/src/stm32f10x_adc.c ****   * @retval None
 322:Libraries/STM32F10x_StdPeriph_Driver/src/stm32f10x_adc.c ****   */
 323:Libraries/STM32F10x_StdPeriph_Driver/src/stm32f10x_adc.c **** void ADC_DMACmd(ADC_TypeDef* ADCx, FunctionalState NewState)
 324:Libraries/STM32F10x_StdPeriph_Driver/src/stm32f10x_adc.c **** {
 348              		.loc 1 324 0
 349              		.cfi_startproc
 350              		@ args = 0, pretend = 0, frame = 8
 351              		@ frame_needed = 1, uses_anonymous_args = 0
 352              		@ link register save eliminated.
 353 0000 80B4     		push	{r7}
 354              	.LCFI12:
 355              		.cfi_def_cfa_offset 4
 356 0002 83B0     		sub	sp, sp, #12
 357              	.LCFI13:
 358              		.cfi_def_cfa_offset 16
 359 0004 00AF     		add	r7, sp, #0
 360              		.cfi_offset 7, -4
 361              	.LCFI14:
 362              		.cfi_def_cfa_register 7
 363 0006 7860     		str	r0, [r7, #4]
 364 0008 0B46     		mov	r3, r1
 365 000a FB70     		strb	r3, [r7, #3]
 325:Libraries/STM32F10x_StdPeriph_Driver/src/stm32f10x_adc.c ****   /* Check the parameters */
 326:Libraries/STM32F10x_StdPeriph_Driver/src/stm32f10x_adc.c ****   assert_param(IS_ADC_DMA_PERIPH(ADCx));
 327:Libraries/STM32F10x_StdPeriph_Driver/src/stm32f10x_adc.c ****   assert_param(IS_FUNCTIONAL_STATE(NewState));
 328:Libraries/STM32F10x_StdPeriph_Driver/src/stm32f10x_adc.c ****   if (NewState != DISABLE)
 366              		.loc 1 328 0
 367 000c FB78     		ldrb	r3, [r7, #3]	@ zero_extendqisi2
 368 000e 002B     		cmp	r3, #0
 369 0010 06D0     		beq	.L15
 329:Libraries/STM32F10x_StdPeriph_Driver/src/stm32f10x_adc.c ****   {
 330:Libraries/STM32F10x_StdPeriph_Driver/src/stm32f10x_adc.c ****     /* Enable the selected ADC DMA request */
 331:Libraries/STM32F10x_StdPeriph_Driver/src/stm32f10x_adc.c ****     ADCx->CR2 |= CR2_DMA_Set;
 370              		.loc 1 331 0
 371 0012 7B68     		ldr	r3, [r7, #4]
 372 0014 9B68     		ldr	r3, [r3, #8]
 373 0016 43F48072 		orr	r2, r3, #256
 374 001a 7B68     		ldr	r3, [r7, #4]
 375 001c 9A60     		str	r2, [r3, #8]
 376 001e 05E0     		b	.L17
 377              	.L15:
 332:Libraries/STM32F10x_StdPeriph_Driver/src/stm32f10x_adc.c ****   }
 333:Libraries/STM32F10x_StdPeriph_Driver/src/stm32f10x_adc.c ****   else
 334:Libraries/STM32F10x_StdPeriph_Driver/src/stm32f10x_adc.c ****   {
 335:Libraries/STM32F10x_StdPeriph_Driver/src/stm32f10x_adc.c ****     /* Disable the selected ADC DMA request */
 336:Libraries/STM32F10x_StdPeriph_Driver/src/stm32f10x_adc.c ****     ADCx->CR2 &= CR2_DMA_Reset;
 378              		.loc 1 336 0
 379 0020 7B68     		ldr	r3, [r7, #4]
 380 0022 9B68     		ldr	r3, [r3, #8]
 381 0024 23F48072 		bic	r2, r3, #256
 382 0028 7B68     		ldr	r3, [r7, #4]
 383 002a 9A60     		str	r2, [r3, #8]
 384              	.L17:
 337:Libraries/STM32F10x_StdPeriph_Driver/src/stm32f10x_adc.c ****   }
 338:Libraries/STM32F10x_StdPeriph_Driver/src/stm32f10x_adc.c **** }
 385              		.loc 1 338 0
 386 002c 07F10C07 		add	r7, r7, #12
 387 0030 BD46     		mov	sp, r7
 388 0032 80BC     		pop	{r7}
 389 0034 7047     		bx	lr
 390              		.cfi_endproc
 391              	.LFE33:
 393 0036 00BF     		.section	.text.ADC_ITConfig,"ax",%progbits
 394              		.align	2
 395              		.global	ADC_ITConfig
 396              		.thumb
 397              		.thumb_func
 399              	ADC_ITConfig:
 400              	.LFB34:
 339:Libraries/STM32F10x_StdPeriph_Driver/src/stm32f10x_adc.c **** 
 340:Libraries/STM32F10x_StdPeriph_Driver/src/stm32f10x_adc.c **** /**
 341:Libraries/STM32F10x_StdPeriph_Driver/src/stm32f10x_adc.c ****   * @brief  Enables or disables the specified ADC interrupts.
 342:Libraries/STM32F10x_StdPeriph_Driver/src/stm32f10x_adc.c ****   * @param  ADCx: where x can be 1, 2 or 3 to select the ADC peripheral.
 343:Libraries/STM32F10x_StdPeriph_Driver/src/stm32f10x_adc.c ****   * @param  ADC_IT: specifies the ADC interrupt sources to be enabled or disabled. 
 344:Libraries/STM32F10x_StdPeriph_Driver/src/stm32f10x_adc.c ****   *   This parameter can be any combination of the following values:
 345:Libraries/STM32F10x_StdPeriph_Driver/src/stm32f10x_adc.c ****   *     @arg ADC_IT_EOC: End of conversion interrupt mask
 346:Libraries/STM32F10x_StdPeriph_Driver/src/stm32f10x_adc.c ****   *     @arg ADC_IT_AWD: Analog watchdog interrupt mask
 347:Libraries/STM32F10x_StdPeriph_Driver/src/stm32f10x_adc.c ****   *     @arg ADC_IT_JEOC: End of injected conversion interrupt mask
 348:Libraries/STM32F10x_StdPeriph_Driver/src/stm32f10x_adc.c ****   * @param  NewState: new state of the specified ADC interrupts.
 349:Libraries/STM32F10x_StdPeriph_Driver/src/stm32f10x_adc.c ****   *   This parameter can be: ENABLE or DISABLE.
 350:Libraries/STM32F10x_StdPeriph_Driver/src/stm32f10x_adc.c ****   * @retval None
 351:Libraries/STM32F10x_StdPeriph_Driver/src/stm32f10x_adc.c ****   */
 352:Libraries/STM32F10x_StdPeriph_Driver/src/stm32f10x_adc.c **** void ADC_ITConfig(ADC_TypeDef* ADCx, uint16_t ADC_IT, FunctionalState NewState)
 353:Libraries/STM32F10x_StdPeriph_Driver/src/stm32f10x_adc.c **** {
 401              		.loc 1 353 0
 402              		.cfi_startproc
 403              		@ args = 0, pretend = 0, frame = 16
 404              		@ frame_needed = 1, uses_anonymous_args = 0
 405              		@ link register save eliminated.
 406 0000 80B4     		push	{r7}
 407              	.LCFI15:
 408              		.cfi_def_cfa_offset 4
 409 0002 85B0     		sub	sp, sp, #20
 410              	.LCFI16:
 411              		.cfi_def_cfa_offset 24
 412 0004 00AF     		add	r7, sp, #0
 413              		.cfi_offset 7, -4
 414              	.LCFI17:
 415              		.cfi_def_cfa_register 7
 416 0006 7860     		str	r0, [r7, #4]
 417 0008 1346     		mov	r3, r2
 418 000a 0A46     		mov	r2, r1	@ movhi
 419 000c 7A80     		strh	r2, [r7, #2]	@ movhi
 420 000e 7B70     		strb	r3, [r7, #1]
 354:Libraries/STM32F10x_StdPeriph_Driver/src/stm32f10x_adc.c ****   uint8_t itmask = 0;
 421              		.loc 1 354 0
 422 0010 4FF00003 		mov	r3, #0
 423 0014 FB73     		strb	r3, [r7, #15]
 355:Libraries/STM32F10x_StdPeriph_Driver/src/stm32f10x_adc.c ****   /* Check the parameters */
 356:Libraries/STM32F10x_StdPeriph_Driver/src/stm32f10x_adc.c ****   assert_param(IS_ADC_ALL_PERIPH(ADCx));
 357:Libraries/STM32F10x_StdPeriph_Driver/src/stm32f10x_adc.c ****   assert_param(IS_FUNCTIONAL_STATE(NewState));
 358:Libraries/STM32F10x_StdPeriph_Driver/src/stm32f10x_adc.c ****   assert_param(IS_ADC_IT(ADC_IT));
 359:Libraries/STM32F10x_StdPeriph_Driver/src/stm32f10x_adc.c ****   /* Get the ADC IT index */
 360:Libraries/STM32F10x_StdPeriph_Driver/src/stm32f10x_adc.c ****   itmask = (uint8_t)ADC_IT;
 424              		.loc 1 360 0
 425 0016 7B88     		ldrh	r3, [r7, #2]	@ movhi
 426 0018 FB73     		strb	r3, [r7, #15]
 361:Libraries/STM32F10x_StdPeriph_Driver/src/stm32f10x_adc.c ****   if (NewState != DISABLE)
 427              		.loc 1 361 0
 428 001a 7B78     		ldrb	r3, [r7, #1]	@ zero_extendqisi2
 429 001c 002B     		cmp	r3, #0
 430 001e 07D0     		beq	.L19
 362:Libraries/STM32F10x_StdPeriph_Driver/src/stm32f10x_adc.c ****   {
 363:Libraries/STM32F10x_StdPeriph_Driver/src/stm32f10x_adc.c ****     /* Enable the selected ADC interrupts */
 364:Libraries/STM32F10x_StdPeriph_Driver/src/stm32f10x_adc.c ****     ADCx->CR1 |= itmask;
 431              		.loc 1 364 0
 432 0020 7B68     		ldr	r3, [r7, #4]
 433 0022 5A68     		ldr	r2, [r3, #4]
 434 0024 FB7B     		ldrb	r3, [r7, #15]	@ zero_extendqisi2
 435 0026 42EA0302 		orr	r2, r2, r3
 436 002a 7B68     		ldr	r3, [r7, #4]
 437 002c 5A60     		str	r2, [r3, #4]
 438 002e 08E0     		b	.L21
 439              	.L19:
 365:Libraries/STM32F10x_StdPeriph_Driver/src/stm32f10x_adc.c ****   }
 366:Libraries/STM32F10x_StdPeriph_Driver/src/stm32f10x_adc.c ****   else
 367:Libraries/STM32F10x_StdPeriph_Driver/src/stm32f10x_adc.c ****   {
 368:Libraries/STM32F10x_StdPeriph_Driver/src/stm32f10x_adc.c ****     /* Disable the selected ADC interrupts */
 369:Libraries/STM32F10x_StdPeriph_Driver/src/stm32f10x_adc.c ****     ADCx->CR1 &= (~(uint32_t)itmask);
 440              		.loc 1 369 0
 441 0030 7B68     		ldr	r3, [r7, #4]
 442 0032 5A68     		ldr	r2, [r3, #4]
 443 0034 FB7B     		ldrb	r3, [r7, #15]	@ zero_extendqisi2
 444 0036 6FEA0303 		mvn	r3, r3
 445 003a 02EA0302 		and	r2, r2, r3
 446 003e 7B68     		ldr	r3, [r7, #4]
 447 0040 5A60     		str	r2, [r3, #4]
 448              	.L21:
 370:Libraries/STM32F10x_StdPeriph_Driver/src/stm32f10x_adc.c ****   }
 371:Libraries/STM32F10x_StdPeriph_Driver/src/stm32f10x_adc.c **** }
 449              		.loc 1 371 0
 450 0042 07F11407 		add	r7, r7, #20
 451 0046 BD46     		mov	sp, r7
 452 0048 80BC     		pop	{r7}
 453 004a 7047     		bx	lr
 454              		.cfi_endproc
 455              	.LFE34:
 457              		.section	.text.ADC_ResetCalibration,"ax",%progbits
 458              		.align	2
 459              		.global	ADC_ResetCalibration
 460              		.thumb
 461              		.thumb_func
 463              	ADC_ResetCalibration:
 464              	.LFB35:
 372:Libraries/STM32F10x_StdPeriph_Driver/src/stm32f10x_adc.c **** 
 373:Libraries/STM32F10x_StdPeriph_Driver/src/stm32f10x_adc.c **** /**
 374:Libraries/STM32F10x_StdPeriph_Driver/src/stm32f10x_adc.c ****   * @brief  Resets the selected ADC calibration registers.
 375:Libraries/STM32F10x_StdPeriph_Driver/src/stm32f10x_adc.c ****   * @param  ADCx: where x can be 1, 2 or 3 to select the ADC peripheral.
 376:Libraries/STM32F10x_StdPeriph_Driver/src/stm32f10x_adc.c ****   * @retval None
 377:Libraries/STM32F10x_StdPeriph_Driver/src/stm32f10x_adc.c ****   */
 378:Libraries/STM32F10x_StdPeriph_Driver/src/stm32f10x_adc.c **** void ADC_ResetCalibration(ADC_TypeDef* ADCx)
 379:Libraries/STM32F10x_StdPeriph_Driver/src/stm32f10x_adc.c **** {
 465              		.loc 1 379 0
 466              		.cfi_startproc
 467              		@ args = 0, pretend = 0, frame = 8
 468              		@ frame_needed = 1, uses_anonymous_args = 0
 469              		@ link register save eliminated.
 470 0000 80B4     		push	{r7}
 471              	.LCFI18:
 472              		.cfi_def_cfa_offset 4
 473 0002 83B0     		sub	sp, sp, #12
 474              	.LCFI19:
 475              		.cfi_def_cfa_offset 16
 476 0004 00AF     		add	r7, sp, #0
 477              		.cfi_offset 7, -4
 478              	.LCFI20:
 479              		.cfi_def_cfa_register 7
 480 0006 7860     		str	r0, [r7, #4]
 380:Libraries/STM32F10x_StdPeriph_Driver/src/stm32f10x_adc.c ****   /* Check the parameters */
 381:Libraries/STM32F10x_StdPeriph_Driver/src/stm32f10x_adc.c ****   assert_param(IS_ADC_ALL_PERIPH(ADCx));
 382:Libraries/STM32F10x_StdPeriph_Driver/src/stm32f10x_adc.c ****   /* Resets the selected ADC calibartion registers */  
 383:Libraries/STM32F10x_StdPeriph_Driver/src/stm32f10x_adc.c ****   ADCx->CR2 |= CR2_RSTCAL_Set;
 481              		.loc 1 383 0
 482 0008 7B68     		ldr	r3, [r7, #4]
 483 000a 9B68     		ldr	r3, [r3, #8]
 484 000c 43F00802 		orr	r2, r3, #8
 485 0010 7B68     		ldr	r3, [r7, #4]
 486 0012 9A60     		str	r2, [r3, #8]
 384:Libraries/STM32F10x_StdPeriph_Driver/src/stm32f10x_adc.c **** }
 487              		.loc 1 384 0
 488 0014 07F10C07 		add	r7, r7, #12
 489 0018 BD46     		mov	sp, r7
 490 001a 80BC     		pop	{r7}
 491 001c 7047     		bx	lr
 492              		.cfi_endproc
 493              	.LFE35:
 495 001e 00BF     		.section	.text.ADC_GetResetCalibrationStatus,"ax",%progbits
 496              		.align	2
 497              		.global	ADC_GetResetCalibrationStatus
 498              		.thumb
 499              		.thumb_func
 501              	ADC_GetResetCalibrationStatus:
 502              	.LFB36:
 385:Libraries/STM32F10x_StdPeriph_Driver/src/stm32f10x_adc.c **** 
 386:Libraries/STM32F10x_StdPeriph_Driver/src/stm32f10x_adc.c **** /**
 387:Libraries/STM32F10x_StdPeriph_Driver/src/stm32f10x_adc.c ****   * @brief  Gets the selected ADC reset calibration registers status.
 388:Libraries/STM32F10x_StdPeriph_Driver/src/stm32f10x_adc.c ****   * @param  ADCx: where x can be 1, 2 or 3 to select the ADC peripheral.
 389:Libraries/STM32F10x_StdPeriph_Driver/src/stm32f10x_adc.c ****   * @retval The new state of ADC reset calibration registers (SET or RESET).
 390:Libraries/STM32F10x_StdPeriph_Driver/src/stm32f10x_adc.c ****   */
 391:Libraries/STM32F10x_StdPeriph_Driver/src/stm32f10x_adc.c **** FlagStatus ADC_GetResetCalibrationStatus(ADC_TypeDef* ADCx)
 392:Libraries/STM32F10x_StdPeriph_Driver/src/stm32f10x_adc.c **** {
 503              		.loc 1 392 0
 504              		.cfi_startproc
 505              		@ args = 0, pretend = 0, frame = 16
 506              		@ frame_needed = 1, uses_anonymous_args = 0
 507              		@ link register save eliminated.
 508 0000 80B4     		push	{r7}
 509              	.LCFI21:
 510              		.cfi_def_cfa_offset 4
 511 0002 85B0     		sub	sp, sp, #20
 512              	.LCFI22:
 513              		.cfi_def_cfa_offset 24
 514 0004 00AF     		add	r7, sp, #0
 515              		.cfi_offset 7, -4
 516              	.LCFI23:
 517              		.cfi_def_cfa_register 7
 518 0006 7860     		str	r0, [r7, #4]
 393:Libraries/STM32F10x_StdPeriph_Driver/src/stm32f10x_adc.c ****   FlagStatus bitstatus = RESET;
 519              		.loc 1 393 0
 520 0008 4FF00003 		mov	r3, #0
 521 000c FB73     		strb	r3, [r7, #15]
 394:Libraries/STM32F10x_StdPeriph_Driver/src/stm32f10x_adc.c ****   /* Check the parameters */
 395:Libraries/STM32F10x_StdPeriph_Driver/src/stm32f10x_adc.c ****   assert_param(IS_ADC_ALL_PERIPH(ADCx));
 396:Libraries/STM32F10x_StdPeriph_Driver/src/stm32f10x_adc.c ****   /* Check the status of RSTCAL bit */
 397:Libraries/STM32F10x_StdPeriph_Driver/src/stm32f10x_adc.c ****   if ((ADCx->CR2 & CR2_RSTCAL_Set) != (uint32_t)RESET)
 522              		.loc 1 397 0
 523 000e 7B68     		ldr	r3, [r7, #4]
 524 0010 9B68     		ldr	r3, [r3, #8]
 525 0012 03F00803 		and	r3, r3, #8
 526 0016 002B     		cmp	r3, #0
 527 0018 03D0     		beq	.L25
 398:Libraries/STM32F10x_StdPeriph_Driver/src/stm32f10x_adc.c ****   {
 399:Libraries/STM32F10x_StdPeriph_Driver/src/stm32f10x_adc.c ****     /* RSTCAL bit is set */
 400:Libraries/STM32F10x_StdPeriph_Driver/src/stm32f10x_adc.c ****     bitstatus = SET;
 528              		.loc 1 400 0
 529 001a 4FF00103 		mov	r3, #1
 530 001e FB73     		strb	r3, [r7, #15]
 531 0020 02E0     		b	.L26
 532              	.L25:
 401:Libraries/STM32F10x_StdPeriph_Driver/src/stm32f10x_adc.c ****   }
 402:Libraries/STM32F10x_StdPeriph_Driver/src/stm32f10x_adc.c ****   else
 403:Libraries/STM32F10x_StdPeriph_Driver/src/stm32f10x_adc.c ****   {
 404:Libraries/STM32F10x_StdPeriph_Driver/src/stm32f10x_adc.c ****     /* RSTCAL bit is reset */
 405:Libraries/STM32F10x_StdPeriph_Driver/src/stm32f10x_adc.c ****     bitstatus = RESET;
 533              		.loc 1 405 0
 534 0022 4FF00003 		mov	r3, #0
 535 0026 FB73     		strb	r3, [r7, #15]
 536              	.L26:
 406:Libraries/STM32F10x_StdPeriph_Driver/src/stm32f10x_adc.c ****   }
 407:Libraries/STM32F10x_StdPeriph_Driver/src/stm32f10x_adc.c ****   /* Return the RSTCAL bit status */
 408:Libraries/STM32F10x_StdPeriph_Driver/src/stm32f10x_adc.c ****   return  bitstatus;
 537              		.loc 1 408 0
 538 0028 FB7B     		ldrb	r3, [r7, #15]	@ zero_extendqisi2
 409:Libraries/STM32F10x_StdPeriph_Driver/src/stm32f10x_adc.c **** }
 539              		.loc 1 409 0
 540 002a 1846     		mov	r0, r3
 541 002c 07F11407 		add	r7, r7, #20
 542 0030 BD46     		mov	sp, r7
 543 0032 80BC     		pop	{r7}
 544 0034 7047     		bx	lr
 545              		.cfi_endproc
 546              	.LFE36:
 548 0036 00BF     		.section	.text.ADC_StartCalibration,"ax",%progbits
 549              		.align	2
 550              		.global	ADC_StartCalibration
 551              		.thumb
 552              		.thumb_func
 554              	ADC_StartCalibration:
 555              	.LFB37:
 410:Libraries/STM32F10x_StdPeriph_Driver/src/stm32f10x_adc.c **** 
 411:Libraries/STM32F10x_StdPeriph_Driver/src/stm32f10x_adc.c **** /**
 412:Libraries/STM32F10x_StdPeriph_Driver/src/stm32f10x_adc.c ****   * @brief  Starts the selected ADC calibration process.
 413:Libraries/STM32F10x_StdPeriph_Driver/src/stm32f10x_adc.c ****   * @param  ADCx: where x can be 1, 2 or 3 to select the ADC peripheral.
 414:Libraries/STM32F10x_StdPeriph_Driver/src/stm32f10x_adc.c ****   * @retval None
 415:Libraries/STM32F10x_StdPeriph_Driver/src/stm32f10x_adc.c ****   */
 416:Libraries/STM32F10x_StdPeriph_Driver/src/stm32f10x_adc.c **** void ADC_StartCalibration(ADC_TypeDef* ADCx)
 417:Libraries/STM32F10x_StdPeriph_Driver/src/stm32f10x_adc.c **** {
 556              		.loc 1 417 0
 557              		.cfi_startproc
 558              		@ args = 0, pretend = 0, frame = 8
 559              		@ frame_needed = 1, uses_anonymous_args = 0
 560              		@ link register save eliminated.
 561 0000 80B4     		push	{r7}
 562              	.LCFI24:
 563              		.cfi_def_cfa_offset 4
 564 0002 83B0     		sub	sp, sp, #12
 565              	.LCFI25:
 566              		.cfi_def_cfa_offset 16
 567 0004 00AF     		add	r7, sp, #0
 568              		.cfi_offset 7, -4
 569              	.LCFI26:
 570              		.cfi_def_cfa_register 7
 571 0006 7860     		str	r0, [r7, #4]
 418:Libraries/STM32F10x_StdPeriph_Driver/src/stm32f10x_adc.c ****   /* Check the parameters */
 419:Libraries/STM32F10x_StdPeriph_Driver/src/stm32f10x_adc.c ****   assert_param(IS_ADC_ALL_PERIPH(ADCx));
 420:Libraries/STM32F10x_StdPeriph_Driver/src/stm32f10x_adc.c ****   /* Enable the selected ADC calibration process */  
 421:Libraries/STM32F10x_StdPeriph_Driver/src/stm32f10x_adc.c ****   ADCx->CR2 |= CR2_CAL_Set;
 572              		.loc 1 421 0
 573 0008 7B68     		ldr	r3, [r7, #4]
 574 000a 9B68     		ldr	r3, [r3, #8]
 575 000c 43F00402 		orr	r2, r3, #4
 576 0010 7B68     		ldr	r3, [r7, #4]
 577 0012 9A60     		str	r2, [r3, #8]
 422:Libraries/STM32F10x_StdPeriph_Driver/src/stm32f10x_adc.c **** }
 578              		.loc 1 422 0
 579 0014 07F10C07 		add	r7, r7, #12
 580 0018 BD46     		mov	sp, r7
 581 001a 80BC     		pop	{r7}
 582 001c 7047     		bx	lr
 583              		.cfi_endproc
 584              	.LFE37:
 586 001e 00BF     		.section	.text.ADC_GetCalibrationStatus,"ax",%progbits
 587              		.align	2
 588              		.global	ADC_GetCalibrationStatus
 589              		.thumb
 590              		.thumb_func
 592              	ADC_GetCalibrationStatus:
 593              	.LFB38:
 423:Libraries/STM32F10x_StdPeriph_Driver/src/stm32f10x_adc.c **** 
 424:Libraries/STM32F10x_StdPeriph_Driver/src/stm32f10x_adc.c **** /**
 425:Libraries/STM32F10x_StdPeriph_Driver/src/stm32f10x_adc.c ****   * @brief  Gets the selected ADC calibration status.
 426:Libraries/STM32F10x_StdPeriph_Driver/src/stm32f10x_adc.c ****   * @param  ADCx: where x can be 1, 2 or 3 to select the ADC peripheral.
 427:Libraries/STM32F10x_StdPeriph_Driver/src/stm32f10x_adc.c ****   * @retval The new state of ADC calibration (SET or RESET).
 428:Libraries/STM32F10x_StdPeriph_Driver/src/stm32f10x_adc.c ****   */
 429:Libraries/STM32F10x_StdPeriph_Driver/src/stm32f10x_adc.c **** FlagStatus ADC_GetCalibrationStatus(ADC_TypeDef* ADCx)
 430:Libraries/STM32F10x_StdPeriph_Driver/src/stm32f10x_adc.c **** {
 594              		.loc 1 430 0
 595              		.cfi_startproc
 596              		@ args = 0, pretend = 0, frame = 16
 597              		@ frame_needed = 1, uses_anonymous_args = 0
 598              		@ link register save eliminated.
 599 0000 80B4     		push	{r7}
 600              	.LCFI27:
 601              		.cfi_def_cfa_offset 4
 602 0002 85B0     		sub	sp, sp, #20
 603              	.LCFI28:
 604              		.cfi_def_cfa_offset 24
 605 0004 00AF     		add	r7, sp, #0
 606              		.cfi_offset 7, -4
 607              	.LCFI29:
 608              		.cfi_def_cfa_register 7
 609 0006 7860     		str	r0, [r7, #4]
 431:Libraries/STM32F10x_StdPeriph_Driver/src/stm32f10x_adc.c ****   FlagStatus bitstatus = RESET;
 610              		.loc 1 431 0
 611 0008 4FF00003 		mov	r3, #0
 612 000c FB73     		strb	r3, [r7, #15]
 432:Libraries/STM32F10x_StdPeriph_Driver/src/stm32f10x_adc.c ****   /* Check the parameters */
 433:Libraries/STM32F10x_StdPeriph_Driver/src/stm32f10x_adc.c ****   assert_param(IS_ADC_ALL_PERIPH(ADCx));
 434:Libraries/STM32F10x_StdPeriph_Driver/src/stm32f10x_adc.c ****   /* Check the status of CAL bit */
 435:Libraries/STM32F10x_StdPeriph_Driver/src/stm32f10x_adc.c ****   if ((ADCx->CR2 & CR2_CAL_Set) != (uint32_t)RESET)
 613              		.loc 1 435 0
 614 000e 7B68     		ldr	r3, [r7, #4]
 615 0010 9B68     		ldr	r3, [r3, #8]
 616 0012 03F00403 		and	r3, r3, #4
 617 0016 002B     		cmp	r3, #0
 618 0018 03D0     		beq	.L31
 436:Libraries/STM32F10x_StdPeriph_Driver/src/stm32f10x_adc.c ****   {
 437:Libraries/STM32F10x_StdPeriph_Driver/src/stm32f10x_adc.c ****     /* CAL bit is set: calibration on going */
 438:Libraries/STM32F10x_StdPeriph_Driver/src/stm32f10x_adc.c ****     bitstatus = SET;
 619              		.loc 1 438 0
 620 001a 4FF00103 		mov	r3, #1
 621 001e FB73     		strb	r3, [r7, #15]
 622 0020 02E0     		b	.L32
 623              	.L31:
 439:Libraries/STM32F10x_StdPeriph_Driver/src/stm32f10x_adc.c ****   }
 440:Libraries/STM32F10x_StdPeriph_Driver/src/stm32f10x_adc.c ****   else
 441:Libraries/STM32F10x_StdPeriph_Driver/src/stm32f10x_adc.c ****   {
 442:Libraries/STM32F10x_StdPeriph_Driver/src/stm32f10x_adc.c ****     /* CAL bit is reset: end of calibration */
 443:Libraries/STM32F10x_StdPeriph_Driver/src/stm32f10x_adc.c ****     bitstatus = RESET;
 624              		.loc 1 443 0
 625 0022 4FF00003 		mov	r3, #0
 626 0026 FB73     		strb	r3, [r7, #15]
 627              	.L32:
 444:Libraries/STM32F10x_StdPeriph_Driver/src/stm32f10x_adc.c ****   }
 445:Libraries/STM32F10x_StdPeriph_Driver/src/stm32f10x_adc.c ****   /* Return the CAL bit status */
 446:Libraries/STM32F10x_StdPeriph_Driver/src/stm32f10x_adc.c ****   return  bitstatus;
 628              		.loc 1 446 0
 629 0028 FB7B     		ldrb	r3, [r7, #15]	@ zero_extendqisi2
 447:Libraries/STM32F10x_StdPeriph_Driver/src/stm32f10x_adc.c **** }
 630              		.loc 1 447 0
 631 002a 1846     		mov	r0, r3
 632 002c 07F11407 		add	r7, r7, #20
 633 0030 BD46     		mov	sp, r7
 634 0032 80BC     		pop	{r7}
 635 0034 7047     		bx	lr
 636              		.cfi_endproc
 637              	.LFE38:
 639 0036 00BF     		.section	.text.ADC_SoftwareStartConvCmd,"ax",%progbits
 640              		.align	2
 641              		.global	ADC_SoftwareStartConvCmd
 642              		.thumb
 643              		.thumb_func
 645              	ADC_SoftwareStartConvCmd:
 646              	.LFB39:
 448:Libraries/STM32F10x_StdPeriph_Driver/src/stm32f10x_adc.c **** 
 449:Libraries/STM32F10x_StdPeriph_Driver/src/stm32f10x_adc.c **** /**
 450:Libraries/STM32F10x_StdPeriph_Driver/src/stm32f10x_adc.c ****   * @brief  Enables or disables the selected ADC software start conversion .
 451:Libraries/STM32F10x_StdPeriph_Driver/src/stm32f10x_adc.c ****   * @param  ADCx: where x can be 1, 2 or 3 to select the ADC peripheral.
 452:Libraries/STM32F10x_StdPeriph_Driver/src/stm32f10x_adc.c ****   * @param  NewState: new state of the selected ADC software start conversion.
 453:Libraries/STM32F10x_StdPeriph_Driver/src/stm32f10x_adc.c ****   *   This parameter can be: ENABLE or DISABLE.
 454:Libraries/STM32F10x_StdPeriph_Driver/src/stm32f10x_adc.c ****   * @retval None
 455:Libraries/STM32F10x_StdPeriph_Driver/src/stm32f10x_adc.c ****   */
 456:Libraries/STM32F10x_StdPeriph_Driver/src/stm32f10x_adc.c **** void ADC_SoftwareStartConvCmd(ADC_TypeDef* ADCx, FunctionalState NewState)
 457:Libraries/STM32F10x_StdPeriph_Driver/src/stm32f10x_adc.c **** {
 647              		.loc 1 457 0
 648              		.cfi_startproc
 649              		@ args = 0, pretend = 0, frame = 8
 650              		@ frame_needed = 1, uses_anonymous_args = 0
 651              		@ link register save eliminated.
 652 0000 80B4     		push	{r7}
 653              	.LCFI30:
 654              		.cfi_def_cfa_offset 4
 655 0002 83B0     		sub	sp, sp, #12
 656              	.LCFI31:
 657              		.cfi_def_cfa_offset 16
 658 0004 00AF     		add	r7, sp, #0
 659              		.cfi_offset 7, -4
 660              	.LCFI32:
 661              		.cfi_def_cfa_register 7
 662 0006 7860     		str	r0, [r7, #4]
 663 0008 0B46     		mov	r3, r1
 664 000a FB70     		strb	r3, [r7, #3]
 458:Libraries/STM32F10x_StdPeriph_Driver/src/stm32f10x_adc.c ****   /* Check the parameters */
 459:Libraries/STM32F10x_StdPeriph_Driver/src/stm32f10x_adc.c ****   assert_param(IS_ADC_ALL_PERIPH(ADCx));
 460:Libraries/STM32F10x_StdPeriph_Driver/src/stm32f10x_adc.c ****   assert_param(IS_FUNCTIONAL_STATE(NewState));
 461:Libraries/STM32F10x_StdPeriph_Driver/src/stm32f10x_adc.c ****   if (NewState != DISABLE)
 665              		.loc 1 461 0
 666 000c FB78     		ldrb	r3, [r7, #3]	@ zero_extendqisi2
 667 000e 002B     		cmp	r3, #0
 668 0010 06D0     		beq	.L35
 462:Libraries/STM32F10x_StdPeriph_Driver/src/stm32f10x_adc.c ****   {
 463:Libraries/STM32F10x_StdPeriph_Driver/src/stm32f10x_adc.c ****     /* Enable the selected ADC conversion on external event and start the selected
 464:Libraries/STM32F10x_StdPeriph_Driver/src/stm32f10x_adc.c ****        ADC conversion */
 465:Libraries/STM32F10x_StdPeriph_Driver/src/stm32f10x_adc.c ****     ADCx->CR2 |= CR2_EXTTRIG_SWSTART_Set;
 669              		.loc 1 465 0
 670 0012 7B68     		ldr	r3, [r7, #4]
 671 0014 9B68     		ldr	r3, [r3, #8]
 672 0016 43F4A002 		orr	r2, r3, #5242880
 673 001a 7B68     		ldr	r3, [r7, #4]
 674 001c 9A60     		str	r2, [r3, #8]
 675 001e 05E0     		b	.L37
 676              	.L35:
 466:Libraries/STM32F10x_StdPeriph_Driver/src/stm32f10x_adc.c ****   }
 467:Libraries/STM32F10x_StdPeriph_Driver/src/stm32f10x_adc.c ****   else
 468:Libraries/STM32F10x_StdPeriph_Driver/src/stm32f10x_adc.c ****   {
 469:Libraries/STM32F10x_StdPeriph_Driver/src/stm32f10x_adc.c ****     /* Disable the selected ADC conversion on external event and stop the selected
 470:Libraries/STM32F10x_StdPeriph_Driver/src/stm32f10x_adc.c ****        ADC conversion */
 471:Libraries/STM32F10x_StdPeriph_Driver/src/stm32f10x_adc.c ****     ADCx->CR2 &= CR2_EXTTRIG_SWSTART_Reset;
 677              		.loc 1 471 0
 678 0020 7B68     		ldr	r3, [r7, #4]
 679 0022 9B68     		ldr	r3, [r3, #8]
 680 0024 23F4A002 		bic	r2, r3, #5242880
 681 0028 7B68     		ldr	r3, [r7, #4]
 682 002a 9A60     		str	r2, [r3, #8]
 683              	.L37:
 472:Libraries/STM32F10x_StdPeriph_Driver/src/stm32f10x_adc.c ****   }
 473:Libraries/STM32F10x_StdPeriph_Driver/src/stm32f10x_adc.c **** }
 684              		.loc 1 473 0
 685 002c 07F10C07 		add	r7, r7, #12
 686 0030 BD46     		mov	sp, r7
 687 0032 80BC     		pop	{r7}
 688 0034 7047     		bx	lr
 689              		.cfi_endproc
 690              	.LFE39:
 692 0036 00BF     		.section	.text.ADC_GetSoftwareStartConvStatus,"ax",%progbits
 693              		.align	2
 694              		.global	ADC_GetSoftwareStartConvStatus
 695              		.thumb
 696              		.thumb_func
 698              	ADC_GetSoftwareStartConvStatus:
 699              	.LFB40:
 474:Libraries/STM32F10x_StdPeriph_Driver/src/stm32f10x_adc.c **** 
 475:Libraries/STM32F10x_StdPeriph_Driver/src/stm32f10x_adc.c **** /**
 476:Libraries/STM32F10x_StdPeriph_Driver/src/stm32f10x_adc.c ****   * @brief  Gets the selected ADC Software start conversion Status.
 477:Libraries/STM32F10x_StdPeriph_Driver/src/stm32f10x_adc.c ****   * @param  ADCx: where x can be 1, 2 or 3 to select the ADC peripheral.
 478:Libraries/STM32F10x_StdPeriph_Driver/src/stm32f10x_adc.c ****   * @retval The new state of ADC software start conversion (SET or RESET).
 479:Libraries/STM32F10x_StdPeriph_Driver/src/stm32f10x_adc.c ****   */
 480:Libraries/STM32F10x_StdPeriph_Driver/src/stm32f10x_adc.c **** FlagStatus ADC_GetSoftwareStartConvStatus(ADC_TypeDef* ADCx)
 481:Libraries/STM32F10x_StdPeriph_Driver/src/stm32f10x_adc.c **** {
 700              		.loc 1 481 0
 701              		.cfi_startproc
 702              		@ args = 0, pretend = 0, frame = 16
 703              		@ frame_needed = 1, uses_anonymous_args = 0
 704              		@ link register save eliminated.
 705 0000 80B4     		push	{r7}
 706              	.LCFI33:
 707              		.cfi_def_cfa_offset 4
 708 0002 85B0     		sub	sp, sp, #20
 709              	.LCFI34:
 710              		.cfi_def_cfa_offset 24
 711 0004 00AF     		add	r7, sp, #0
 712              		.cfi_offset 7, -4
 713              	.LCFI35:
 714              		.cfi_def_cfa_register 7
 715 0006 7860     		str	r0, [r7, #4]
 482:Libraries/STM32F10x_StdPeriph_Driver/src/stm32f10x_adc.c ****   FlagStatus bitstatus = RESET;
 716              		.loc 1 482 0
 717 0008 4FF00003 		mov	r3, #0
 718 000c FB73     		strb	r3, [r7, #15]
 483:Libraries/STM32F10x_StdPeriph_Driver/src/stm32f10x_adc.c ****   /* Check the parameters */
 484:Libraries/STM32F10x_StdPeriph_Driver/src/stm32f10x_adc.c ****   assert_param(IS_ADC_ALL_PERIPH(ADCx));
 485:Libraries/STM32F10x_StdPeriph_Driver/src/stm32f10x_adc.c ****   /* Check the status of SWSTART bit */
 486:Libraries/STM32F10x_StdPeriph_Driver/src/stm32f10x_adc.c ****   if ((ADCx->CR2 & CR2_SWSTART_Set) != (uint32_t)RESET)
 719              		.loc 1 486 0
 720 000e 7B68     		ldr	r3, [r7, #4]
 721 0010 9B68     		ldr	r3, [r3, #8]
 722 0012 03F48003 		and	r3, r3, #4194304
 723 0016 002B     		cmp	r3, #0
 724 0018 03D0     		beq	.L39
 487:Libraries/STM32F10x_StdPeriph_Driver/src/stm32f10x_adc.c ****   {
 488:Libraries/STM32F10x_StdPeriph_Driver/src/stm32f10x_adc.c ****     /* SWSTART bit is set */
 489:Libraries/STM32F10x_StdPeriph_Driver/src/stm32f10x_adc.c ****     bitstatus = SET;
 725              		.loc 1 489 0
 726 001a 4FF00103 		mov	r3, #1
 727 001e FB73     		strb	r3, [r7, #15]
 728 0020 02E0     		b	.L40
 729              	.L39:
 490:Libraries/STM32F10x_StdPeriph_Driver/src/stm32f10x_adc.c ****   }
 491:Libraries/STM32F10x_StdPeriph_Driver/src/stm32f10x_adc.c ****   else
 492:Libraries/STM32F10x_StdPeriph_Driver/src/stm32f10x_adc.c ****   {
 493:Libraries/STM32F10x_StdPeriph_Driver/src/stm32f10x_adc.c ****     /* SWSTART bit is reset */
 494:Libraries/STM32F10x_StdPeriph_Driver/src/stm32f10x_adc.c ****     bitstatus = RESET;
 730              		.loc 1 494 0
 731 0022 4FF00003 		mov	r3, #0
 732 0026 FB73     		strb	r3, [r7, #15]
 733              	.L40:
 495:Libraries/STM32F10x_StdPeriph_Driver/src/stm32f10x_adc.c ****   }
 496:Libraries/STM32F10x_StdPeriph_Driver/src/stm32f10x_adc.c ****   /* Return the SWSTART bit status */
 497:Libraries/STM32F10x_StdPeriph_Driver/src/stm32f10x_adc.c ****   return  bitstatus;
 734              		.loc 1 497 0
 735 0028 FB7B     		ldrb	r3, [r7, #15]	@ zero_extendqisi2
 498:Libraries/STM32F10x_StdPeriph_Driver/src/stm32f10x_adc.c **** }
 736              		.loc 1 498 0
 737 002a 1846     		mov	r0, r3
 738 002c 07F11407 		add	r7, r7, #20
 739 0030 BD46     		mov	sp, r7
 740 0032 80BC     		pop	{r7}
 741 0034 7047     		bx	lr
 742              		.cfi_endproc
 743              	.LFE40:
 745 0036 00BF     		.section	.text.ADC_DiscModeChannelCountConfig,"ax",%progbits
 746              		.align	2
 747              		.global	ADC_DiscModeChannelCountConfig
 748              		.thumb
 749              		.thumb_func
 751              	ADC_DiscModeChannelCountConfig:
 752              	.LFB41:
 499:Libraries/STM32F10x_StdPeriph_Driver/src/stm32f10x_adc.c **** 
 500:Libraries/STM32F10x_StdPeriph_Driver/src/stm32f10x_adc.c **** /**
 501:Libraries/STM32F10x_StdPeriph_Driver/src/stm32f10x_adc.c ****   * @brief  Configures the discontinuous mode for the selected ADC regular
 502:Libraries/STM32F10x_StdPeriph_Driver/src/stm32f10x_adc.c ****   *   group channel.
 503:Libraries/STM32F10x_StdPeriph_Driver/src/stm32f10x_adc.c ****   * @param  ADCx: where x can be 1, 2 or 3 to select the ADC peripheral.
 504:Libraries/STM32F10x_StdPeriph_Driver/src/stm32f10x_adc.c ****   * @param  Number: specifies the discontinuous mode regular channel
 505:Libraries/STM32F10x_StdPeriph_Driver/src/stm32f10x_adc.c ****   *   count value. This number must be between 1 and 8.
 506:Libraries/STM32F10x_StdPeriph_Driver/src/stm32f10x_adc.c ****   * @retval None
 507:Libraries/STM32F10x_StdPeriph_Driver/src/stm32f10x_adc.c ****   */
 508:Libraries/STM32F10x_StdPeriph_Driver/src/stm32f10x_adc.c **** void ADC_DiscModeChannelCountConfig(ADC_TypeDef* ADCx, uint8_t Number)
 509:Libraries/STM32F10x_StdPeriph_Driver/src/stm32f10x_adc.c **** {
 753              		.loc 1 509 0
 754              		.cfi_startproc
 755              		@ args = 0, pretend = 0, frame = 16
 756              		@ frame_needed = 1, uses_anonymous_args = 0
 757              		@ link register save eliminated.
 758 0000 80B4     		push	{r7}
 759              	.LCFI36:
 760              		.cfi_def_cfa_offset 4
 761 0002 85B0     		sub	sp, sp, #20
 762              	.LCFI37:
 763              		.cfi_def_cfa_offset 24
 764 0004 00AF     		add	r7, sp, #0
 765              		.cfi_offset 7, -4
 766              	.LCFI38:
 767              		.cfi_def_cfa_register 7
 768 0006 7860     		str	r0, [r7, #4]
 769 0008 0B46     		mov	r3, r1
 770 000a FB70     		strb	r3, [r7, #3]
 510:Libraries/STM32F10x_StdPeriph_Driver/src/stm32f10x_adc.c ****   uint32_t tmpreg1 = 0;
 771              		.loc 1 510 0
 772 000c 4FF00003 		mov	r3, #0
 773 0010 BB60     		str	r3, [r7, #8]
 511:Libraries/STM32F10x_StdPeriph_Driver/src/stm32f10x_adc.c ****   uint32_t tmpreg2 = 0;
 774              		.loc 1 511 0
 775 0012 4FF00003 		mov	r3, #0
 776 0016 FB60     		str	r3, [r7, #12]
 512:Libraries/STM32F10x_StdPeriph_Driver/src/stm32f10x_adc.c ****   /* Check the parameters */
 513:Libraries/STM32F10x_StdPeriph_Driver/src/stm32f10x_adc.c ****   assert_param(IS_ADC_ALL_PERIPH(ADCx));
 514:Libraries/STM32F10x_StdPeriph_Driver/src/stm32f10x_adc.c ****   assert_param(IS_ADC_REGULAR_DISC_NUMBER(Number));
 515:Libraries/STM32F10x_StdPeriph_Driver/src/stm32f10x_adc.c ****   /* Get the old register value */
 516:Libraries/STM32F10x_StdPeriph_Driver/src/stm32f10x_adc.c ****   tmpreg1 = ADCx->CR1;
 777              		.loc 1 516 0
 778 0018 7B68     		ldr	r3, [r7, #4]
 779 001a 5B68     		ldr	r3, [r3, #4]
 780 001c BB60     		str	r3, [r7, #8]
 517:Libraries/STM32F10x_StdPeriph_Driver/src/stm32f10x_adc.c ****   /* Clear the old discontinuous mode channel count */
 518:Libraries/STM32F10x_StdPeriph_Driver/src/stm32f10x_adc.c ****   tmpreg1 &= CR1_DISCNUM_Reset;
 781              		.loc 1 518 0
 782 001e BB68     		ldr	r3, [r7, #8]
 783 0020 23F46043 		bic	r3, r3, #57344
 784 0024 BB60     		str	r3, [r7, #8]
 519:Libraries/STM32F10x_StdPeriph_Driver/src/stm32f10x_adc.c ****   /* Set the discontinuous mode channel count */
 520:Libraries/STM32F10x_StdPeriph_Driver/src/stm32f10x_adc.c ****   tmpreg2 = Number - 1;
 785              		.loc 1 520 0
 786 0026 FB78     		ldrb	r3, [r7, #3]	@ zero_extendqisi2
 787 0028 03F1FF33 		add	r3, r3, #-1
 788 002c FB60     		str	r3, [r7, #12]
 521:Libraries/STM32F10x_StdPeriph_Driver/src/stm32f10x_adc.c ****   tmpreg1 |= tmpreg2 << 13;
 789              		.loc 1 521 0
 790 002e FB68     		ldr	r3, [r7, #12]
 791 0030 4FEA4333 		lsl	r3, r3, #13
 792 0034 BA68     		ldr	r2, [r7, #8]
 793 0036 42EA0303 		orr	r3, r2, r3
 794 003a BB60     		str	r3, [r7, #8]
 522:Libraries/STM32F10x_StdPeriph_Driver/src/stm32f10x_adc.c ****   /* Store the new register value */
 523:Libraries/STM32F10x_StdPeriph_Driver/src/stm32f10x_adc.c ****   ADCx->CR1 = tmpreg1;
 795              		.loc 1 523 0
 796 003c 7B68     		ldr	r3, [r7, #4]
 797 003e BA68     		ldr	r2, [r7, #8]
 798 0040 5A60     		str	r2, [r3, #4]
 524:Libraries/STM32F10x_StdPeriph_Driver/src/stm32f10x_adc.c **** }
 799              		.loc 1 524 0
 800 0042 07F11407 		add	r7, r7, #20
 801 0046 BD46     		mov	sp, r7
 802 0048 80BC     		pop	{r7}
 803 004a 7047     		bx	lr
 804              		.cfi_endproc
 805              	.LFE41:
 807              		.section	.text.ADC_DiscModeCmd,"ax",%progbits
 808              		.align	2
 809              		.global	ADC_DiscModeCmd
 810              		.thumb
 811              		.thumb_func
 813              	ADC_DiscModeCmd:
 814              	.LFB42:
 525:Libraries/STM32F10x_StdPeriph_Driver/src/stm32f10x_adc.c **** 
 526:Libraries/STM32F10x_StdPeriph_Driver/src/stm32f10x_adc.c **** /**
 527:Libraries/STM32F10x_StdPeriph_Driver/src/stm32f10x_adc.c ****   * @brief  Enables or disables the discontinuous mode on regular group
 528:Libraries/STM32F10x_StdPeriph_Driver/src/stm32f10x_adc.c ****   *   channel for the specified ADC
 529:Libraries/STM32F10x_StdPeriph_Driver/src/stm32f10x_adc.c ****   * @param  ADCx: where x can be 1, 2 or 3 to select the ADC peripheral.
 530:Libraries/STM32F10x_StdPeriph_Driver/src/stm32f10x_adc.c ****   * @param  NewState: new state of the selected ADC discontinuous mode
 531:Libraries/STM32F10x_StdPeriph_Driver/src/stm32f10x_adc.c ****   *   on regular group channel.
 532:Libraries/STM32F10x_StdPeriph_Driver/src/stm32f10x_adc.c ****   *   This parameter can be: ENABLE or DISABLE.
 533:Libraries/STM32F10x_StdPeriph_Driver/src/stm32f10x_adc.c ****   * @retval None
 534:Libraries/STM32F10x_StdPeriph_Driver/src/stm32f10x_adc.c ****   */
 535:Libraries/STM32F10x_StdPeriph_Driver/src/stm32f10x_adc.c **** void ADC_DiscModeCmd(ADC_TypeDef* ADCx, FunctionalState NewState)
 536:Libraries/STM32F10x_StdPeriph_Driver/src/stm32f10x_adc.c **** {
 815              		.loc 1 536 0
 816              		.cfi_startproc
 817              		@ args = 0, pretend = 0, frame = 8
 818              		@ frame_needed = 1, uses_anonymous_args = 0
 819              		@ link register save eliminated.
 820 0000 80B4     		push	{r7}
 821              	.LCFI39:
 822              		.cfi_def_cfa_offset 4
 823 0002 83B0     		sub	sp, sp, #12
 824              	.LCFI40:
 825              		.cfi_def_cfa_offset 16
 826 0004 00AF     		add	r7, sp, #0
 827              		.cfi_offset 7, -4
 828              	.LCFI41:
 829              		.cfi_def_cfa_register 7
 830 0006 7860     		str	r0, [r7, #4]
 831 0008 0B46     		mov	r3, r1
 832 000a FB70     		strb	r3, [r7, #3]
 537:Libraries/STM32F10x_StdPeriph_Driver/src/stm32f10x_adc.c ****   /* Check the parameters */
 538:Libraries/STM32F10x_StdPeriph_Driver/src/stm32f10x_adc.c ****   assert_param(IS_ADC_ALL_PERIPH(ADCx));
 539:Libraries/STM32F10x_StdPeriph_Driver/src/stm32f10x_adc.c ****   assert_param(IS_FUNCTIONAL_STATE(NewState));
 540:Libraries/STM32F10x_StdPeriph_Driver/src/stm32f10x_adc.c ****   if (NewState != DISABLE)
 833              		.loc 1 540 0
 834 000c FB78     		ldrb	r3, [r7, #3]	@ zero_extendqisi2
 835 000e 002B     		cmp	r3, #0
 836 0010 06D0     		beq	.L45
 541:Libraries/STM32F10x_StdPeriph_Driver/src/stm32f10x_adc.c ****   {
 542:Libraries/STM32F10x_StdPeriph_Driver/src/stm32f10x_adc.c ****     /* Enable the selected ADC regular discontinuous mode */
 543:Libraries/STM32F10x_StdPeriph_Driver/src/stm32f10x_adc.c ****     ADCx->CR1 |= CR1_DISCEN_Set;
 837              		.loc 1 543 0
 838 0012 7B68     		ldr	r3, [r7, #4]
 839 0014 5B68     		ldr	r3, [r3, #4]
 840 0016 43F40062 		orr	r2, r3, #2048
 841 001a 7B68     		ldr	r3, [r7, #4]
 842 001c 5A60     		str	r2, [r3, #4]
 843 001e 05E0     		b	.L47
 844              	.L45:
 544:Libraries/STM32F10x_StdPeriph_Driver/src/stm32f10x_adc.c ****   }
 545:Libraries/STM32F10x_StdPeriph_Driver/src/stm32f10x_adc.c ****   else
 546:Libraries/STM32F10x_StdPeriph_Driver/src/stm32f10x_adc.c ****   {
 547:Libraries/STM32F10x_StdPeriph_Driver/src/stm32f10x_adc.c ****     /* Disable the selected ADC regular discontinuous mode */
 548:Libraries/STM32F10x_StdPeriph_Driver/src/stm32f10x_adc.c ****     ADCx->CR1 &= CR1_DISCEN_Reset;
 845              		.loc 1 548 0
 846 0020 7B68     		ldr	r3, [r7, #4]
 847 0022 5B68     		ldr	r3, [r3, #4]
 848 0024 23F40062 		bic	r2, r3, #2048
 849 0028 7B68     		ldr	r3, [r7, #4]
 850 002a 5A60     		str	r2, [r3, #4]
 851              	.L47:
 549:Libraries/STM32F10x_StdPeriph_Driver/src/stm32f10x_adc.c ****   }
 550:Libraries/STM32F10x_StdPeriph_Driver/src/stm32f10x_adc.c **** }
 852              		.loc 1 550 0
 853 002c 07F10C07 		add	r7, r7, #12
 854 0030 BD46     		mov	sp, r7
 855 0032 80BC     		pop	{r7}
 856 0034 7047     		bx	lr
 857              		.cfi_endproc
 858              	.LFE42:
 860 0036 00BF     		.section	.text.ADC_RegularChannelConfig,"ax",%progbits
 861              		.align	2
 862              		.global	ADC_RegularChannelConfig
 863              		.thumb
 864              		.thumb_func
 866              	ADC_RegularChannelConfig:
 867              	.LFB43:
 551:Libraries/STM32F10x_StdPeriph_Driver/src/stm32f10x_adc.c **** 
 552:Libraries/STM32F10x_StdPeriph_Driver/src/stm32f10x_adc.c **** /**
 553:Libraries/STM32F10x_StdPeriph_Driver/src/stm32f10x_adc.c ****   * @brief  Configures for the selected ADC regular channel its corresponding
 554:Libraries/STM32F10x_StdPeriph_Driver/src/stm32f10x_adc.c ****   *   rank in the sequencer and its sample time.
 555:Libraries/STM32F10x_StdPeriph_Driver/src/stm32f10x_adc.c ****   * @param  ADCx: where x can be 1, 2 or 3 to select the ADC peripheral.
 556:Libraries/STM32F10x_StdPeriph_Driver/src/stm32f10x_adc.c ****   * @param  ADC_Channel: the ADC channel to configure. 
 557:Libraries/STM32F10x_StdPeriph_Driver/src/stm32f10x_adc.c ****   *   This parameter can be one of the following values:
 558:Libraries/STM32F10x_StdPeriph_Driver/src/stm32f10x_adc.c ****   *     @arg ADC_Channel_0: ADC Channel0 selected
 559:Libraries/STM32F10x_StdPeriph_Driver/src/stm32f10x_adc.c ****   *     @arg ADC_Channel_1: ADC Channel1 selected
 560:Libraries/STM32F10x_StdPeriph_Driver/src/stm32f10x_adc.c ****   *     @arg ADC_Channel_2: ADC Channel2 selected
 561:Libraries/STM32F10x_StdPeriph_Driver/src/stm32f10x_adc.c ****   *     @arg ADC_Channel_3: ADC Channel3 selected
 562:Libraries/STM32F10x_StdPeriph_Driver/src/stm32f10x_adc.c ****   *     @arg ADC_Channel_4: ADC Channel4 selected
 563:Libraries/STM32F10x_StdPeriph_Driver/src/stm32f10x_adc.c ****   *     @arg ADC_Channel_5: ADC Channel5 selected
 564:Libraries/STM32F10x_StdPeriph_Driver/src/stm32f10x_adc.c ****   *     @arg ADC_Channel_6: ADC Channel6 selected
 565:Libraries/STM32F10x_StdPeriph_Driver/src/stm32f10x_adc.c ****   *     @arg ADC_Channel_7: ADC Channel7 selected
 566:Libraries/STM32F10x_StdPeriph_Driver/src/stm32f10x_adc.c ****   *     @arg ADC_Channel_8: ADC Channel8 selected
 567:Libraries/STM32F10x_StdPeriph_Driver/src/stm32f10x_adc.c ****   *     @arg ADC_Channel_9: ADC Channel9 selected
 568:Libraries/STM32F10x_StdPeriph_Driver/src/stm32f10x_adc.c ****   *     @arg ADC_Channel_10: ADC Channel10 selected
 569:Libraries/STM32F10x_StdPeriph_Driver/src/stm32f10x_adc.c ****   *     @arg ADC_Channel_11: ADC Channel11 selected
 570:Libraries/STM32F10x_StdPeriph_Driver/src/stm32f10x_adc.c ****   *     @arg ADC_Channel_12: ADC Channel12 selected
 571:Libraries/STM32F10x_StdPeriph_Driver/src/stm32f10x_adc.c ****   *     @arg ADC_Channel_13: ADC Channel13 selected
 572:Libraries/STM32F10x_StdPeriph_Driver/src/stm32f10x_adc.c ****   *     @arg ADC_Channel_14: ADC Channel14 selected
 573:Libraries/STM32F10x_StdPeriph_Driver/src/stm32f10x_adc.c ****   *     @arg ADC_Channel_15: ADC Channel15 selected
 574:Libraries/STM32F10x_StdPeriph_Driver/src/stm32f10x_adc.c ****   *     @arg ADC_Channel_16: ADC Channel16 selected
 575:Libraries/STM32F10x_StdPeriph_Driver/src/stm32f10x_adc.c ****   *     @arg ADC_Channel_17: ADC Channel17 selected
 576:Libraries/STM32F10x_StdPeriph_Driver/src/stm32f10x_adc.c ****   * @param  Rank: The rank in the regular group sequencer. This parameter must be between 1 to 16.
 577:Libraries/STM32F10x_StdPeriph_Driver/src/stm32f10x_adc.c ****   * @param  ADC_SampleTime: The sample time value to be set for the selected channel. 
 578:Libraries/STM32F10x_StdPeriph_Driver/src/stm32f10x_adc.c ****   *   This parameter can be one of the following values:
 579:Libraries/STM32F10x_StdPeriph_Driver/src/stm32f10x_adc.c ****   *     @arg ADC_SampleTime_1Cycles5: Sample time equal to 1.5 cycles
 580:Libraries/STM32F10x_StdPeriph_Driver/src/stm32f10x_adc.c ****   *     @arg ADC_SampleTime_7Cycles5: Sample time equal to 7.5 cycles
 581:Libraries/STM32F10x_StdPeriph_Driver/src/stm32f10x_adc.c ****   *     @arg ADC_SampleTime_13Cycles5: Sample time equal to 13.5 cycles
 582:Libraries/STM32F10x_StdPeriph_Driver/src/stm32f10x_adc.c ****   *     @arg ADC_SampleTime_28Cycles5: Sample time equal to 28.5 cycles	
 583:Libraries/STM32F10x_StdPeriph_Driver/src/stm32f10x_adc.c ****   *     @arg ADC_SampleTime_41Cycles5: Sample time equal to 41.5 cycles	
 584:Libraries/STM32F10x_StdPeriph_Driver/src/stm32f10x_adc.c ****   *     @arg ADC_SampleTime_55Cycles5: Sample time equal to 55.5 cycles	
 585:Libraries/STM32F10x_StdPeriph_Driver/src/stm32f10x_adc.c ****   *     @arg ADC_SampleTime_71Cycles5: Sample time equal to 71.5 cycles	
 586:Libraries/STM32F10x_StdPeriph_Driver/src/stm32f10x_adc.c ****   *     @arg ADC_SampleTime_239Cycles5: Sample time equal to 239.5 cycles	
 587:Libraries/STM32F10x_StdPeriph_Driver/src/stm32f10x_adc.c ****   * @retval None
 588:Libraries/STM32F10x_StdPeriph_Driver/src/stm32f10x_adc.c ****   */
 589:Libraries/STM32F10x_StdPeriph_Driver/src/stm32f10x_adc.c **** void ADC_RegularChannelConfig(ADC_TypeDef* ADCx, uint8_t ADC_Channel, uint8_t Rank, uint8_t ADC_Sam
 590:Libraries/STM32F10x_StdPeriph_Driver/src/stm32f10x_adc.c **** {
 868              		.loc 1 590 0
 869              		.cfi_startproc
 870              		@ args = 0, pretend = 0, frame = 16
 871              		@ frame_needed = 1, uses_anonymous_args = 0
 872              		@ link register save eliminated.
 873 0000 80B4     		push	{r7}
 874              	.LCFI42:
 875              		.cfi_def_cfa_offset 4
 876 0002 85B0     		sub	sp, sp, #20
 877              	.LCFI43:
 878              		.cfi_def_cfa_offset 24
 879 0004 00AF     		add	r7, sp, #0
 880              		.cfi_offset 7, -4
 881              	.LCFI44:
 882              		.cfi_def_cfa_register 7
 883 0006 7860     		str	r0, [r7, #4]
 884 0008 F970     		strb	r1, [r7, #3]
 885 000a BA70     		strb	r2, [r7, #2]
 886 000c 7B70     		strb	r3, [r7, #1]
 591:Libraries/STM32F10x_StdPeriph_Driver/src/stm32f10x_adc.c ****   uint32_t tmpreg1 = 0, tmpreg2 = 0;
 887              		.loc 1 591 0
 888 000e 4FF00003 		mov	r3, #0
 889 0012 BB60     		str	r3, [r7, #8]
 890 0014 4FF00003 		mov	r3, #0
 891 0018 FB60     		str	r3, [r7, #12]
 592:Libraries/STM32F10x_StdPeriph_Driver/src/stm32f10x_adc.c ****   /* Check the parameters */
 593:Libraries/STM32F10x_StdPeriph_Driver/src/stm32f10x_adc.c ****   assert_param(IS_ADC_ALL_PERIPH(ADCx));
 594:Libraries/STM32F10x_StdPeriph_Driver/src/stm32f10x_adc.c ****   assert_param(IS_ADC_CHANNEL(ADC_Channel));
 595:Libraries/STM32F10x_StdPeriph_Driver/src/stm32f10x_adc.c ****   assert_param(IS_ADC_REGULAR_RANK(Rank));
 596:Libraries/STM32F10x_StdPeriph_Driver/src/stm32f10x_adc.c ****   assert_param(IS_ADC_SAMPLE_TIME(ADC_SampleTime));
 597:Libraries/STM32F10x_StdPeriph_Driver/src/stm32f10x_adc.c ****   /* if ADC_Channel_10 ... ADC_Channel_17 is selected */
 598:Libraries/STM32F10x_StdPeriph_Driver/src/stm32f10x_adc.c ****   if (ADC_Channel > ADC_Channel_9)
 892              		.loc 1 598 0
 893 001a FB78     		ldrb	r3, [r7, #3]	@ zero_extendqisi2
 894 001c 092B     		cmp	r3, #9
 895 001e 29D9     		bls	.L49
 599:Libraries/STM32F10x_StdPeriph_Driver/src/stm32f10x_adc.c ****   {
 600:Libraries/STM32F10x_StdPeriph_Driver/src/stm32f10x_adc.c ****     /* Get the old register value */
 601:Libraries/STM32F10x_StdPeriph_Driver/src/stm32f10x_adc.c ****     tmpreg1 = ADCx->SMPR1;
 896              		.loc 1 601 0
 897 0020 7B68     		ldr	r3, [r7, #4]
 898 0022 DB68     		ldr	r3, [r3, #12]
 899 0024 BB60     		str	r3, [r7, #8]
 602:Libraries/STM32F10x_StdPeriph_Driver/src/stm32f10x_adc.c ****     /* Calculate the mask to clear */
 603:Libraries/STM32F10x_StdPeriph_Driver/src/stm32f10x_adc.c ****     tmpreg2 = SMPR1_SMP_Set << (3 * (ADC_Channel - 10));
 900              		.loc 1 603 0
 901 0026 FA78     		ldrb	r2, [r7, #3]	@ zero_extendqisi2
 902 0028 1346     		mov	r3, r2
 903 002a 4FEA4303 		lsl	r3, r3, #1
 904 002e 1344     		add	r3, r3, r2
 905 0030 A3F11E03 		sub	r3, r3, #30
 906 0034 4FF00702 		mov	r2, #7
 907 0038 02FA03F3 		lsl	r3, r2, r3
 908 003c FB60     		str	r3, [r7, #12]
 604:Libraries/STM32F10x_StdPeriph_Driver/src/stm32f10x_adc.c ****     /* Clear the old channel sample time */
 605:Libraries/STM32F10x_StdPeriph_Driver/src/stm32f10x_adc.c ****     tmpreg1 &= ~tmpreg2;
 909              		.loc 1 605 0
 910 003e FB68     		ldr	r3, [r7, #12]
 911 0040 6FEA0303 		mvn	r3, r3
 912 0044 BA68     		ldr	r2, [r7, #8]
 913 0046 02EA0303 		and	r3, r2, r3
 914 004a BB60     		str	r3, [r7, #8]
 606:Libraries/STM32F10x_StdPeriph_Driver/src/stm32f10x_adc.c ****     /* Calculate the mask to set */
 607:Libraries/STM32F10x_StdPeriph_Driver/src/stm32f10x_adc.c ****     tmpreg2 = (uint32_t)ADC_SampleTime << (3 * (ADC_Channel - 10));
 915              		.loc 1 607 0
 916 004c 7978     		ldrb	r1, [r7, #1]	@ zero_extendqisi2
 917 004e FA78     		ldrb	r2, [r7, #3]	@ zero_extendqisi2
 918 0050 1346     		mov	r3, r2
 919 0052 4FEA4303 		lsl	r3, r3, #1
 920 0056 1344     		add	r3, r3, r2
 921 0058 A3F11E03 		sub	r3, r3, #30
 922 005c 01FA03F3 		lsl	r3, r1, r3
 923 0060 FB60     		str	r3, [r7, #12]
 608:Libraries/STM32F10x_StdPeriph_Driver/src/stm32f10x_adc.c ****     /* Set the new channel sample time */
 609:Libraries/STM32F10x_StdPeriph_Driver/src/stm32f10x_adc.c ****     tmpreg1 |= tmpreg2;
 924              		.loc 1 609 0
 925 0062 BA68     		ldr	r2, [r7, #8]
 926 0064 FB68     		ldr	r3, [r7, #12]
 927 0066 42EA0303 		orr	r3, r2, r3
 928 006a BB60     		str	r3, [r7, #8]
 610:Libraries/STM32F10x_StdPeriph_Driver/src/stm32f10x_adc.c ****     /* Store the new register value */
 611:Libraries/STM32F10x_StdPeriph_Driver/src/stm32f10x_adc.c ****     ADCx->SMPR1 = tmpreg1;
 929              		.loc 1 611 0
 930 006c 7B68     		ldr	r3, [r7, #4]
 931 006e BA68     		ldr	r2, [r7, #8]
 932 0070 DA60     		str	r2, [r3, #12]
 933 0072 24E0     		b	.L50
 934              	.L49:
 612:Libraries/STM32F10x_StdPeriph_Driver/src/stm32f10x_adc.c ****   }
 613:Libraries/STM32F10x_StdPeriph_Driver/src/stm32f10x_adc.c ****   else /* ADC_Channel include in ADC_Channel_[0..9] */
 614:Libraries/STM32F10x_StdPeriph_Driver/src/stm32f10x_adc.c ****   {
 615:Libraries/STM32F10x_StdPeriph_Driver/src/stm32f10x_adc.c ****     /* Get the old register value */
 616:Libraries/STM32F10x_StdPeriph_Driver/src/stm32f10x_adc.c ****     tmpreg1 = ADCx->SMPR2;
 935              		.loc 1 616 0
 936 0074 7B68     		ldr	r3, [r7, #4]
 937 0076 1B69     		ldr	r3, [r3, #16]
 938 0078 BB60     		str	r3, [r7, #8]
 617:Libraries/STM32F10x_StdPeriph_Driver/src/stm32f10x_adc.c ****     /* Calculate the mask to clear */
 618:Libraries/STM32F10x_StdPeriph_Driver/src/stm32f10x_adc.c ****     tmpreg2 = SMPR2_SMP_Set << (3 * ADC_Channel);
 939              		.loc 1 618 0
 940 007a FA78     		ldrb	r2, [r7, #3]	@ zero_extendqisi2
 941 007c 1346     		mov	r3, r2
 942 007e 4FEA4303 		lsl	r3, r3, #1
 943 0082 1344     		add	r3, r3, r2
 944 0084 4FF00702 		mov	r2, #7
 945 0088 02FA03F3 		lsl	r3, r2, r3
 946 008c FB60     		str	r3, [r7, #12]
 619:Libraries/STM32F10x_StdPeriph_Driver/src/stm32f10x_adc.c ****     /* Clear the old channel sample time */
 620:Libraries/STM32F10x_StdPeriph_Driver/src/stm32f10x_adc.c ****     tmpreg1 &= ~tmpreg2;
 947              		.loc 1 620 0
 948 008e FB68     		ldr	r3, [r7, #12]
 949 0090 6FEA0303 		mvn	r3, r3
 950 0094 BA68     		ldr	r2, [r7, #8]
 951 0096 02EA0303 		and	r3, r2, r3
 952 009a BB60     		str	r3, [r7, #8]
 621:Libraries/STM32F10x_StdPeriph_Driver/src/stm32f10x_adc.c ****     /* Calculate the mask to set */
 622:Libraries/STM32F10x_StdPeriph_Driver/src/stm32f10x_adc.c ****     tmpreg2 = (uint32_t)ADC_SampleTime << (3 * ADC_Channel);
 953              		.loc 1 622 0
 954 009c 7978     		ldrb	r1, [r7, #1]	@ zero_extendqisi2
 955 009e FA78     		ldrb	r2, [r7, #3]	@ zero_extendqisi2
 956 00a0 1346     		mov	r3, r2
 957 00a2 4FEA4303 		lsl	r3, r3, #1
 958 00a6 1344     		add	r3, r3, r2
 959 00a8 01FA03F3 		lsl	r3, r1, r3
 960 00ac FB60     		str	r3, [r7, #12]
 623:Libraries/STM32F10x_StdPeriph_Driver/src/stm32f10x_adc.c ****     /* Set the new channel sample time */
 624:Libraries/STM32F10x_StdPeriph_Driver/src/stm32f10x_adc.c ****     tmpreg1 |= tmpreg2;
 961              		.loc 1 624 0
 962 00ae BA68     		ldr	r2, [r7, #8]
 963 00b0 FB68     		ldr	r3, [r7, #12]
 964 00b2 42EA0303 		orr	r3, r2, r3
 965 00b6 BB60     		str	r3, [r7, #8]
 625:Libraries/STM32F10x_StdPeriph_Driver/src/stm32f10x_adc.c ****     /* Store the new register value */
 626:Libraries/STM32F10x_StdPeriph_Driver/src/stm32f10x_adc.c ****     ADCx->SMPR2 = tmpreg1;
 966              		.loc 1 626 0
 967 00b8 7B68     		ldr	r3, [r7, #4]
 968 00ba BA68     		ldr	r2, [r7, #8]
 969 00bc 1A61     		str	r2, [r3, #16]
 970              	.L50:
 627:Libraries/STM32F10x_StdPeriph_Driver/src/stm32f10x_adc.c ****   }
 628:Libraries/STM32F10x_StdPeriph_Driver/src/stm32f10x_adc.c ****   /* For Rank 1 to 6 */
 629:Libraries/STM32F10x_StdPeriph_Driver/src/stm32f10x_adc.c ****   if (Rank < 7)
 971              		.loc 1 629 0
 972 00be BB78     		ldrb	r3, [r7, #2]	@ zero_extendqisi2
 973 00c0 062B     		cmp	r3, #6
 974 00c2 29D8     		bhi	.L51
 630:Libraries/STM32F10x_StdPeriph_Driver/src/stm32f10x_adc.c ****   {
 631:Libraries/STM32F10x_StdPeriph_Driver/src/stm32f10x_adc.c ****     /* Get the old register value */
 632:Libraries/STM32F10x_StdPeriph_Driver/src/stm32f10x_adc.c ****     tmpreg1 = ADCx->SQR3;
 975              		.loc 1 632 0
 976 00c4 7B68     		ldr	r3, [r7, #4]
 977 00c6 5B6B     		ldr	r3, [r3, #52]
 978 00c8 BB60     		str	r3, [r7, #8]
 633:Libraries/STM32F10x_StdPeriph_Driver/src/stm32f10x_adc.c ****     /* Calculate the mask to clear */
 634:Libraries/STM32F10x_StdPeriph_Driver/src/stm32f10x_adc.c ****     tmpreg2 = SQR3_SQ_Set << (5 * (Rank - 1));
 979              		.loc 1 634 0
 980 00ca BB78     		ldrb	r3, [r7, #2]	@ zero_extendqisi2
 981 00cc 03F1FF32 		add	r2, r3, #-1
 982 00d0 1346     		mov	r3, r2
 983 00d2 4FEA8303 		lsl	r3, r3, #2
 984 00d6 1344     		add	r3, r3, r2
 985 00d8 4FF01F02 		mov	r2, #31
 986 00dc 02FA03F3 		lsl	r3, r2, r3
 987 00e0 FB60     		str	r3, [r7, #12]
 635:Libraries/STM32F10x_StdPeriph_Driver/src/stm32f10x_adc.c ****     /* Clear the old SQx bits for the selected rank */
 636:Libraries/STM32F10x_StdPeriph_Driver/src/stm32f10x_adc.c ****     tmpreg1 &= ~tmpreg2;
 988              		.loc 1 636 0
 989 00e2 FB68     		ldr	r3, [r7, #12]
 990 00e4 6FEA0303 		mvn	r3, r3
 991 00e8 BA68     		ldr	r2, [r7, #8]
 992 00ea 02EA0303 		and	r3, r2, r3
 993 00ee BB60     		str	r3, [r7, #8]
 637:Libraries/STM32F10x_StdPeriph_Driver/src/stm32f10x_adc.c ****     /* Calculate the mask to set */
 638:Libraries/STM32F10x_StdPeriph_Driver/src/stm32f10x_adc.c ****     tmpreg2 = (uint32_t)ADC_Channel << (5 * (Rank - 1));
 994              		.loc 1 638 0
 995 00f0 F978     		ldrb	r1, [r7, #3]	@ zero_extendqisi2
 996 00f2 BB78     		ldrb	r3, [r7, #2]	@ zero_extendqisi2
 997 00f4 03F1FF32 		add	r2, r3, #-1
 998 00f8 1346     		mov	r3, r2
 999 00fa 4FEA8303 		lsl	r3, r3, #2
 1000 00fe 1344     		add	r3, r3, r2
 1001 0100 01FA03F3 		lsl	r3, r1, r3
 1002 0104 FB60     		str	r3, [r7, #12]
 639:Libraries/STM32F10x_StdPeriph_Driver/src/stm32f10x_adc.c ****     /* Set the SQx bits for the selected rank */
 640:Libraries/STM32F10x_StdPeriph_Driver/src/stm32f10x_adc.c ****     tmpreg1 |= tmpreg2;
 1003              		.loc 1 640 0
 1004 0106 BA68     		ldr	r2, [r7, #8]
 1005 0108 FB68     		ldr	r3, [r7, #12]
 1006 010a 42EA0303 		orr	r3, r2, r3
 1007 010e BB60     		str	r3, [r7, #8]
 641:Libraries/STM32F10x_StdPeriph_Driver/src/stm32f10x_adc.c ****     /* Store the new register value */
 642:Libraries/STM32F10x_StdPeriph_Driver/src/stm32f10x_adc.c ****     ADCx->SQR3 = tmpreg1;
 1008              		.loc 1 642 0
 1009 0110 7B68     		ldr	r3, [r7, #4]
 1010 0112 BA68     		ldr	r2, [r7, #8]
 1011 0114 5A63     		str	r2, [r3, #52]
 1012 0116 55E0     		b	.L54
 1013              	.L51:
 643:Libraries/STM32F10x_StdPeriph_Driver/src/stm32f10x_adc.c ****   }
 644:Libraries/STM32F10x_StdPeriph_Driver/src/stm32f10x_adc.c ****   /* For Rank 7 to 12 */
 645:Libraries/STM32F10x_StdPeriph_Driver/src/stm32f10x_adc.c ****   else if (Rank < 13)
 1014              		.loc 1 645 0
 1015 0118 BB78     		ldrb	r3, [r7, #2]	@ zero_extendqisi2
 1016 011a 0C2B     		cmp	r3, #12
 1017 011c 29D8     		bhi	.L53
 646:Libraries/STM32F10x_StdPeriph_Driver/src/stm32f10x_adc.c ****   {
 647:Libraries/STM32F10x_StdPeriph_Driver/src/stm32f10x_adc.c ****     /* Get the old register value */
 648:Libraries/STM32F10x_StdPeriph_Driver/src/stm32f10x_adc.c ****     tmpreg1 = ADCx->SQR2;
 1018              		.loc 1 648 0
 1019 011e 7B68     		ldr	r3, [r7, #4]
 1020 0120 1B6B     		ldr	r3, [r3, #48]
 1021 0122 BB60     		str	r3, [r7, #8]
 649:Libraries/STM32F10x_StdPeriph_Driver/src/stm32f10x_adc.c ****     /* Calculate the mask to clear */
 650:Libraries/STM32F10x_StdPeriph_Driver/src/stm32f10x_adc.c ****     tmpreg2 = SQR2_SQ_Set << (5 * (Rank - 7));
 1022              		.loc 1 650 0
 1023 0124 BA78     		ldrb	r2, [r7, #2]	@ zero_extendqisi2
 1024 0126 1346     		mov	r3, r2
 1025 0128 4FEA8303 		lsl	r3, r3, #2
 1026 012c 1344     		add	r3, r3, r2
 1027 012e A3F12303 		sub	r3, r3, #35
 1028 0132 4FF01F02 		mov	r2, #31
 1029 0136 02FA03F3 		lsl	r3, r2, r3
 1030 013a FB60     		str	r3, [r7, #12]
 651:Libraries/STM32F10x_StdPeriph_Driver/src/stm32f10x_adc.c ****     /* Clear the old SQx bits for the selected rank */
 652:Libraries/STM32F10x_StdPeriph_Driver/src/stm32f10x_adc.c ****     tmpreg1 &= ~tmpreg2;
 1031              		.loc 1 652 0
 1032 013c FB68     		ldr	r3, [r7, #12]
 1033 013e 6FEA0303 		mvn	r3, r3
 1034 0142 BA68     		ldr	r2, [r7, #8]
 1035 0144 02EA0303 		and	r3, r2, r3
 1036 0148 BB60     		str	r3, [r7, #8]
 653:Libraries/STM32F10x_StdPeriph_Driver/src/stm32f10x_adc.c ****     /* Calculate the mask to set */
 654:Libraries/STM32F10x_StdPeriph_Driver/src/stm32f10x_adc.c ****     tmpreg2 = (uint32_t)ADC_Channel << (5 * (Rank - 7));
 1037              		.loc 1 654 0
 1038 014a F978     		ldrb	r1, [r7, #3]	@ zero_extendqisi2
 1039 014c BA78     		ldrb	r2, [r7, #2]	@ zero_extendqisi2
 1040 014e 1346     		mov	r3, r2
 1041 0150 4FEA8303 		lsl	r3, r3, #2
 1042 0154 1344     		add	r3, r3, r2
 1043 0156 A3F12303 		sub	r3, r3, #35
 1044 015a 01FA03F3 		lsl	r3, r1, r3
 1045 015e FB60     		str	r3, [r7, #12]
 655:Libraries/STM32F10x_StdPeriph_Driver/src/stm32f10x_adc.c ****     /* Set the SQx bits for the selected rank */
 656:Libraries/STM32F10x_StdPeriph_Driver/src/stm32f10x_adc.c ****     tmpreg1 |= tmpreg2;
 1046              		.loc 1 656 0
 1047 0160 BA68     		ldr	r2, [r7, #8]
 1048 0162 FB68     		ldr	r3, [r7, #12]
 1049 0164 42EA0303 		orr	r3, r2, r3
 1050 0168 BB60     		str	r3, [r7, #8]
 657:Libraries/STM32F10x_StdPeriph_Driver/src/stm32f10x_adc.c ****     /* Store the new register value */
 658:Libraries/STM32F10x_StdPeriph_Driver/src/stm32f10x_adc.c ****     ADCx->SQR2 = tmpreg1;
 1051              		.loc 1 658 0
 1052 016a 7B68     		ldr	r3, [r7, #4]
 1053 016c BA68     		ldr	r2, [r7, #8]
 1054 016e 1A63     		str	r2, [r3, #48]
 1055 0170 28E0     		b	.L54
 1056              	.L53:
 659:Libraries/STM32F10x_StdPeriph_Driver/src/stm32f10x_adc.c ****   }
 660:Libraries/STM32F10x_StdPeriph_Driver/src/stm32f10x_adc.c ****   /* For Rank 13 to 16 */
 661:Libraries/STM32F10x_StdPeriph_Driver/src/stm32f10x_adc.c ****   else
 662:Libraries/STM32F10x_StdPeriph_Driver/src/stm32f10x_adc.c ****   {
 663:Libraries/STM32F10x_StdPeriph_Driver/src/stm32f10x_adc.c ****     /* Get the old register value */
 664:Libraries/STM32F10x_StdPeriph_Driver/src/stm32f10x_adc.c ****     tmpreg1 = ADCx->SQR1;
 1057              		.loc 1 664 0
 1058 0172 7B68     		ldr	r3, [r7, #4]
 1059 0174 DB6A     		ldr	r3, [r3, #44]
 1060 0176 BB60     		str	r3, [r7, #8]
 665:Libraries/STM32F10x_StdPeriph_Driver/src/stm32f10x_adc.c ****     /* Calculate the mask to clear */
 666:Libraries/STM32F10x_StdPeriph_Driver/src/stm32f10x_adc.c ****     tmpreg2 = SQR1_SQ_Set << (5 * (Rank - 13));
 1061              		.loc 1 666 0
 1062 0178 BA78     		ldrb	r2, [r7, #2]	@ zero_extendqisi2
 1063 017a 1346     		mov	r3, r2
 1064 017c 4FEA8303 		lsl	r3, r3, #2
 1065 0180 1344     		add	r3, r3, r2
 1066 0182 A3F14103 		sub	r3, r3, #65
 1067 0186 4FF01F02 		mov	r2, #31
 1068 018a 02FA03F3 		lsl	r3, r2, r3
 1069 018e FB60     		str	r3, [r7, #12]
 667:Libraries/STM32F10x_StdPeriph_Driver/src/stm32f10x_adc.c ****     /* Clear the old SQx bits for the selected rank */
 668:Libraries/STM32F10x_StdPeriph_Driver/src/stm32f10x_adc.c ****     tmpreg1 &= ~tmpreg2;
 1070              		.loc 1 668 0
 1071 0190 FB68     		ldr	r3, [r7, #12]
 1072 0192 6FEA0303 		mvn	r3, r3
 1073 0196 BA68     		ldr	r2, [r7, #8]
 1074 0198 02EA0303 		and	r3, r2, r3
 1075 019c BB60     		str	r3, [r7, #8]
 669:Libraries/STM32F10x_StdPeriph_Driver/src/stm32f10x_adc.c ****     /* Calculate the mask to set */
 670:Libraries/STM32F10x_StdPeriph_Driver/src/stm32f10x_adc.c ****     tmpreg2 = (uint32_t)ADC_Channel << (5 * (Rank - 13));
 1076              		.loc 1 670 0
 1077 019e F978     		ldrb	r1, [r7, #3]	@ zero_extendqisi2
 1078 01a0 BA78     		ldrb	r2, [r7, #2]	@ zero_extendqisi2
 1079 01a2 1346     		mov	r3, r2
 1080 01a4 4FEA8303 		lsl	r3, r3, #2
 1081 01a8 1344     		add	r3, r3, r2
 1082 01aa A3F14103 		sub	r3, r3, #65
 1083 01ae 01FA03F3 		lsl	r3, r1, r3
 1084 01b2 FB60     		str	r3, [r7, #12]
 671:Libraries/STM32F10x_StdPeriph_Driver/src/stm32f10x_adc.c ****     /* Set the SQx bits for the selected rank */
 672:Libraries/STM32F10x_StdPeriph_Driver/src/stm32f10x_adc.c ****     tmpreg1 |= tmpreg2;
 1085              		.loc 1 672 0
 1086 01b4 BA68     		ldr	r2, [r7, #8]
 1087 01b6 FB68     		ldr	r3, [r7, #12]
 1088 01b8 42EA0303 		orr	r3, r2, r3
 1089 01bc BB60     		str	r3, [r7, #8]
 673:Libraries/STM32F10x_StdPeriph_Driver/src/stm32f10x_adc.c ****     /* Store the new register value */
 674:Libraries/STM32F10x_StdPeriph_Driver/src/stm32f10x_adc.c ****     ADCx->SQR1 = tmpreg1;
 1090              		.loc 1 674 0
 1091 01be 7B68     		ldr	r3, [r7, #4]
 1092 01c0 BA68     		ldr	r2, [r7, #8]
 1093 01c2 DA62     		str	r2, [r3, #44]
 1094              	.L54:
 675:Libraries/STM32F10x_StdPeriph_Driver/src/stm32f10x_adc.c ****   }
 676:Libraries/STM32F10x_StdPeriph_Driver/src/stm32f10x_adc.c **** }
 1095              		.loc 1 676 0
 1096 01c4 07F11407 		add	r7, r7, #20
 1097 01c8 BD46     		mov	sp, r7
 1098 01ca 80BC     		pop	{r7}
 1099 01cc 7047     		bx	lr
 1100              		.cfi_endproc
 1101              	.LFE43:
 1103 01ce 00BF     		.section	.text.ADC_ExternalTrigConvCmd,"ax",%progbits
 1104              		.align	2
 1105              		.global	ADC_ExternalTrigConvCmd
 1106              		.thumb
 1107              		.thumb_func
 1109              	ADC_ExternalTrigConvCmd:
 1110              	.LFB44:
 677:Libraries/STM32F10x_StdPeriph_Driver/src/stm32f10x_adc.c **** 
 678:Libraries/STM32F10x_StdPeriph_Driver/src/stm32f10x_adc.c **** /**
 679:Libraries/STM32F10x_StdPeriph_Driver/src/stm32f10x_adc.c ****   * @brief  Enables or disables the ADCx conversion through external trigger.
 680:Libraries/STM32F10x_StdPeriph_Driver/src/stm32f10x_adc.c ****   * @param  ADCx: where x can be 1, 2 or 3 to select the ADC peripheral.
 681:Libraries/STM32F10x_StdPeriph_Driver/src/stm32f10x_adc.c ****   * @param  NewState: new state of the selected ADC external trigger start of conversion.
 682:Libraries/STM32F10x_StdPeriph_Driver/src/stm32f10x_adc.c ****   *   This parameter can be: ENABLE or DISABLE.
 683:Libraries/STM32F10x_StdPeriph_Driver/src/stm32f10x_adc.c ****   * @retval None
 684:Libraries/STM32F10x_StdPeriph_Driver/src/stm32f10x_adc.c ****   */
 685:Libraries/STM32F10x_StdPeriph_Driver/src/stm32f10x_adc.c **** void ADC_ExternalTrigConvCmd(ADC_TypeDef* ADCx, FunctionalState NewState)
 686:Libraries/STM32F10x_StdPeriph_Driver/src/stm32f10x_adc.c **** {
 1111              		.loc 1 686 0
 1112              		.cfi_startproc
 1113              		@ args = 0, pretend = 0, frame = 8
 1114              		@ frame_needed = 1, uses_anonymous_args = 0
 1115              		@ link register save eliminated.
 1116 0000 80B4     		push	{r7}
 1117              	.LCFI45:
 1118              		.cfi_def_cfa_offset 4
 1119 0002 83B0     		sub	sp, sp, #12
 1120              	.LCFI46:
 1121              		.cfi_def_cfa_offset 16
 1122 0004 00AF     		add	r7, sp, #0
 1123              		.cfi_offset 7, -4
 1124              	.LCFI47:
 1125              		.cfi_def_cfa_register 7
 1126 0006 7860     		str	r0, [r7, #4]
 1127 0008 0B46     		mov	r3, r1
 1128 000a FB70     		strb	r3, [r7, #3]
 687:Libraries/STM32F10x_StdPeriph_Driver/src/stm32f10x_adc.c ****   /* Check the parameters */
 688:Libraries/STM32F10x_StdPeriph_Driver/src/stm32f10x_adc.c ****   assert_param(IS_ADC_ALL_PERIPH(ADCx));
 689:Libraries/STM32F10x_StdPeriph_Driver/src/stm32f10x_adc.c ****   assert_param(IS_FUNCTIONAL_STATE(NewState));
 690:Libraries/STM32F10x_StdPeriph_Driver/src/stm32f10x_adc.c ****   if (NewState != DISABLE)
 1129              		.loc 1 690 0
 1130 000c FB78     		ldrb	r3, [r7, #3]	@ zero_extendqisi2
 1131 000e 002B     		cmp	r3, #0
 1132 0010 06D0     		beq	.L56
 691:Libraries/STM32F10x_StdPeriph_Driver/src/stm32f10x_adc.c ****   {
 692:Libraries/STM32F10x_StdPeriph_Driver/src/stm32f10x_adc.c ****     /* Enable the selected ADC conversion on external event */
 693:Libraries/STM32F10x_StdPeriph_Driver/src/stm32f10x_adc.c ****     ADCx->CR2 |= CR2_EXTTRIG_Set;
 1133              		.loc 1 693 0
 1134 0012 7B68     		ldr	r3, [r7, #4]
 1135 0014 9B68     		ldr	r3, [r3, #8]
 1136 0016 43F48012 		orr	r2, r3, #1048576
 1137 001a 7B68     		ldr	r3, [r7, #4]
 1138 001c 9A60     		str	r2, [r3, #8]
 1139 001e 05E0     		b	.L58
 1140              	.L56:
 694:Libraries/STM32F10x_StdPeriph_Driver/src/stm32f10x_adc.c ****   }
 695:Libraries/STM32F10x_StdPeriph_Driver/src/stm32f10x_adc.c ****   else
 696:Libraries/STM32F10x_StdPeriph_Driver/src/stm32f10x_adc.c ****   {
 697:Libraries/STM32F10x_StdPeriph_Driver/src/stm32f10x_adc.c ****     /* Disable the selected ADC conversion on external event */
 698:Libraries/STM32F10x_StdPeriph_Driver/src/stm32f10x_adc.c ****     ADCx->CR2 &= CR2_EXTTRIG_Reset;
 1141              		.loc 1 698 0
 1142 0020 7B68     		ldr	r3, [r7, #4]
 1143 0022 9B68     		ldr	r3, [r3, #8]
 1144 0024 23F48012 		bic	r2, r3, #1048576
 1145 0028 7B68     		ldr	r3, [r7, #4]
 1146 002a 9A60     		str	r2, [r3, #8]
 1147              	.L58:
 699:Libraries/STM32F10x_StdPeriph_Driver/src/stm32f10x_adc.c ****   }
 700:Libraries/STM32F10x_StdPeriph_Driver/src/stm32f10x_adc.c **** }
 1148              		.loc 1 700 0
 1149 002c 07F10C07 		add	r7, r7, #12
 1150 0030 BD46     		mov	sp, r7
 1151 0032 80BC     		pop	{r7}
 1152 0034 7047     		bx	lr
 1153              		.cfi_endproc
 1154              	.LFE44:
 1156 0036 00BF     		.section	.text.ADC_GetConversionValue,"ax",%progbits
 1157              		.align	2
 1158              		.global	ADC_GetConversionValue
 1159              		.thumb
 1160              		.thumb_func
 1162              	ADC_GetConversionValue:
 1163              	.LFB45:
 701:Libraries/STM32F10x_StdPeriph_Driver/src/stm32f10x_adc.c **** 
 702:Libraries/STM32F10x_StdPeriph_Driver/src/stm32f10x_adc.c **** /**
 703:Libraries/STM32F10x_StdPeriph_Driver/src/stm32f10x_adc.c ****   * @brief  Returns the last ADCx conversion result data for regular channel.
 704:Libraries/STM32F10x_StdPeriph_Driver/src/stm32f10x_adc.c ****   * @param  ADCx: where x can be 1, 2 or 3 to select the ADC peripheral.
 705:Libraries/STM32F10x_StdPeriph_Driver/src/stm32f10x_adc.c ****   * @retval The Data conversion value.
 706:Libraries/STM32F10x_StdPeriph_Driver/src/stm32f10x_adc.c ****   */
 707:Libraries/STM32F10x_StdPeriph_Driver/src/stm32f10x_adc.c **** uint16_t ADC_GetConversionValue(ADC_TypeDef* ADCx)
 708:Libraries/STM32F10x_StdPeriph_Driver/src/stm32f10x_adc.c **** {
 1164              		.loc 1 708 0
 1165              		.cfi_startproc
 1166              		@ args = 0, pretend = 0, frame = 8
 1167              		@ frame_needed = 1, uses_anonymous_args = 0
 1168              		@ link register save eliminated.
 1169 0000 80B4     		push	{r7}
 1170              	.LCFI48:
 1171              		.cfi_def_cfa_offset 4
 1172 0002 83B0     		sub	sp, sp, #12
 1173              	.LCFI49:
 1174              		.cfi_def_cfa_offset 16
 1175 0004 00AF     		add	r7, sp, #0
 1176              		.cfi_offset 7, -4
 1177              	.LCFI50:
 1178              		.cfi_def_cfa_register 7
 1179 0006 7860     		str	r0, [r7, #4]
 709:Libraries/STM32F10x_StdPeriph_Driver/src/stm32f10x_adc.c ****   /* Check the parameters */
 710:Libraries/STM32F10x_StdPeriph_Driver/src/stm32f10x_adc.c ****   assert_param(IS_ADC_ALL_PERIPH(ADCx));
 711:Libraries/STM32F10x_StdPeriph_Driver/src/stm32f10x_adc.c ****   /* Return the selected ADC conversion value */
 712:Libraries/STM32F10x_StdPeriph_Driver/src/stm32f10x_adc.c ****   return (uint16_t) ADCx->DR;
 1180              		.loc 1 712 0
 1181 0008 7B68     		ldr	r3, [r7, #4]
 1182 000a DB6C     		ldr	r3, [r3, #76]
 1183 000c 9BB2     		uxth	r3, r3
 713:Libraries/STM32F10x_StdPeriph_Driver/src/stm32f10x_adc.c **** }
 1184              		.loc 1 713 0
 1185 000e 1846     		mov	r0, r3
 1186 0010 07F10C07 		add	r7, r7, #12
 1187 0014 BD46     		mov	sp, r7
 1188 0016 80BC     		pop	{r7}
 1189 0018 7047     		bx	lr
 1190              		.cfi_endproc
 1191              	.LFE45:
 1193 001a 00BF     		.section	.text.ADC_GetDualModeConversionValue,"ax",%progbits
 1194              		.align	2
 1195              		.global	ADC_GetDualModeConversionValue
 1196              		.thumb
 1197              		.thumb_func
 1199              	ADC_GetDualModeConversionValue:
 1200              	.LFB46:
 714:Libraries/STM32F10x_StdPeriph_Driver/src/stm32f10x_adc.c **** 
 715:Libraries/STM32F10x_StdPeriph_Driver/src/stm32f10x_adc.c **** /**
 716:Libraries/STM32F10x_StdPeriph_Driver/src/stm32f10x_adc.c ****   * @brief  Returns the last ADC1 and ADC2 conversion result data in dual mode.
 717:Libraries/STM32F10x_StdPeriph_Driver/src/stm32f10x_adc.c ****   * @retval The Data conversion value.
 718:Libraries/STM32F10x_StdPeriph_Driver/src/stm32f10x_adc.c ****   */
 719:Libraries/STM32F10x_StdPeriph_Driver/src/stm32f10x_adc.c **** uint32_t ADC_GetDualModeConversionValue(void)
 720:Libraries/STM32F10x_StdPeriph_Driver/src/stm32f10x_adc.c **** {
 1201              		.loc 1 720 0
 1202              		.cfi_startproc
 1203              		@ args = 0, pretend = 0, frame = 0
 1204              		@ frame_needed = 1, uses_anonymous_args = 0
 1205              		@ link register save eliminated.
 1206 0000 80B4     		push	{r7}
 1207              	.LCFI51:
 1208              		.cfi_def_cfa_offset 4
 1209 0002 00AF     		add	r7, sp, #0
 1210              		.cfi_offset 7, -4
 1211              	.LCFI52:
 1212              		.cfi_def_cfa_register 7
 721:Libraries/STM32F10x_StdPeriph_Driver/src/stm32f10x_adc.c ****   /* Return the dual mode conversion value */
 722:Libraries/STM32F10x_StdPeriph_Driver/src/stm32f10x_adc.c ****   return (*(__IO uint32_t *) DR_ADDRESS);
 1213              		.loc 1 722 0
 1214 0004 42F24C43 		movw	r3, #:lower16:1073816652
 1215 0008 C4F20103 		movt	r3, #:upper16:1073816652
 1216 000c 1B68     		ldr	r3, [r3, #0]
 723:Libraries/STM32F10x_StdPeriph_Driver/src/stm32f10x_adc.c **** }
 1217              		.loc 1 723 0
 1218 000e 1846     		mov	r0, r3
 1219 0010 BD46     		mov	sp, r7
 1220 0012 80BC     		pop	{r7}
 1221 0014 7047     		bx	lr
 1222              		.cfi_endproc
 1223              	.LFE46:
 1225 0016 00BF     		.section	.text.ADC_AutoInjectedConvCmd,"ax",%progbits
 1226              		.align	2
 1227              		.global	ADC_AutoInjectedConvCmd
 1228              		.thumb
 1229              		.thumb_func
 1231              	ADC_AutoInjectedConvCmd:
 1232              	.LFB47:
 724:Libraries/STM32F10x_StdPeriph_Driver/src/stm32f10x_adc.c **** 
 725:Libraries/STM32F10x_StdPeriph_Driver/src/stm32f10x_adc.c **** /**
 726:Libraries/STM32F10x_StdPeriph_Driver/src/stm32f10x_adc.c ****   * @brief  Enables or disables the selected ADC automatic injected group
 727:Libraries/STM32F10x_StdPeriph_Driver/src/stm32f10x_adc.c ****   *   conversion after regular one.
 728:Libraries/STM32F10x_StdPeriph_Driver/src/stm32f10x_adc.c ****   * @param  ADCx: where x can be 1, 2 or 3 to select the ADC peripheral.
 729:Libraries/STM32F10x_StdPeriph_Driver/src/stm32f10x_adc.c ****   * @param  NewState: new state of the selected ADC auto injected conversion
 730:Libraries/STM32F10x_StdPeriph_Driver/src/stm32f10x_adc.c ****   *   This parameter can be: ENABLE or DISABLE.
 731:Libraries/STM32F10x_StdPeriph_Driver/src/stm32f10x_adc.c ****   * @retval None
 732:Libraries/STM32F10x_StdPeriph_Driver/src/stm32f10x_adc.c ****   */
 733:Libraries/STM32F10x_StdPeriph_Driver/src/stm32f10x_adc.c **** void ADC_AutoInjectedConvCmd(ADC_TypeDef* ADCx, FunctionalState NewState)
 734:Libraries/STM32F10x_StdPeriph_Driver/src/stm32f10x_adc.c **** {
 1233              		.loc 1 734 0
 1234              		.cfi_startproc
 1235              		@ args = 0, pretend = 0, frame = 8
 1236              		@ frame_needed = 1, uses_anonymous_args = 0
 1237              		@ link register save eliminated.
 1238 0000 80B4     		push	{r7}
 1239              	.LCFI53:
 1240              		.cfi_def_cfa_offset 4
 1241 0002 83B0     		sub	sp, sp, #12
 1242              	.LCFI54:
 1243              		.cfi_def_cfa_offset 16
 1244 0004 00AF     		add	r7, sp, #0
 1245              		.cfi_offset 7, -4
 1246              	.LCFI55:
 1247              		.cfi_def_cfa_register 7
 1248 0006 7860     		str	r0, [r7, #4]
 1249 0008 0B46     		mov	r3, r1
 1250 000a FB70     		strb	r3, [r7, #3]
 735:Libraries/STM32F10x_StdPeriph_Driver/src/stm32f10x_adc.c ****   /* Check the parameters */
 736:Libraries/STM32F10x_StdPeriph_Driver/src/stm32f10x_adc.c ****   assert_param(IS_ADC_ALL_PERIPH(ADCx));
 737:Libraries/STM32F10x_StdPeriph_Driver/src/stm32f10x_adc.c ****   assert_param(IS_FUNCTIONAL_STATE(NewState));
 738:Libraries/STM32F10x_StdPeriph_Driver/src/stm32f10x_adc.c ****   if (NewState != DISABLE)
 1251              		.loc 1 738 0
 1252 000c FB78     		ldrb	r3, [r7, #3]	@ zero_extendqisi2
 1253 000e 002B     		cmp	r3, #0
 1254 0010 06D0     		beq	.L64
 739:Libraries/STM32F10x_StdPeriph_Driver/src/stm32f10x_adc.c ****   {
 740:Libraries/STM32F10x_StdPeriph_Driver/src/stm32f10x_adc.c ****     /* Enable the selected ADC automatic injected group conversion */
 741:Libraries/STM32F10x_StdPeriph_Driver/src/stm32f10x_adc.c ****     ADCx->CR1 |= CR1_JAUTO_Set;
 1255              		.loc 1 741 0
 1256 0012 7B68     		ldr	r3, [r7, #4]
 1257 0014 5B68     		ldr	r3, [r3, #4]
 1258 0016 43F48062 		orr	r2, r3, #1024
 1259 001a 7B68     		ldr	r3, [r7, #4]
 1260 001c 5A60     		str	r2, [r3, #4]
 1261 001e 05E0     		b	.L66
 1262              	.L64:
 742:Libraries/STM32F10x_StdPeriph_Driver/src/stm32f10x_adc.c ****   }
 743:Libraries/STM32F10x_StdPeriph_Driver/src/stm32f10x_adc.c ****   else
 744:Libraries/STM32F10x_StdPeriph_Driver/src/stm32f10x_adc.c ****   {
 745:Libraries/STM32F10x_StdPeriph_Driver/src/stm32f10x_adc.c ****     /* Disable the selected ADC automatic injected group conversion */
 746:Libraries/STM32F10x_StdPeriph_Driver/src/stm32f10x_adc.c ****     ADCx->CR1 &= CR1_JAUTO_Reset;
 1263              		.loc 1 746 0
 1264 0020 7B68     		ldr	r3, [r7, #4]
 1265 0022 5B68     		ldr	r3, [r3, #4]
 1266 0024 23F48062 		bic	r2, r3, #1024
 1267 0028 7B68     		ldr	r3, [r7, #4]
 1268 002a 5A60     		str	r2, [r3, #4]
 1269              	.L66:
 747:Libraries/STM32F10x_StdPeriph_Driver/src/stm32f10x_adc.c ****   }
 748:Libraries/STM32F10x_StdPeriph_Driver/src/stm32f10x_adc.c **** }
 1270              		.loc 1 748 0
 1271 002c 07F10C07 		add	r7, r7, #12
 1272 0030 BD46     		mov	sp, r7
 1273 0032 80BC     		pop	{r7}
 1274 0034 7047     		bx	lr
 1275              		.cfi_endproc
 1276              	.LFE47:
 1278 0036 00BF     		.section	.text.ADC_InjectedDiscModeCmd,"ax",%progbits
 1279              		.align	2
 1280              		.global	ADC_InjectedDiscModeCmd
 1281              		.thumb
 1282              		.thumb_func
 1284              	ADC_InjectedDiscModeCmd:
 1285              	.LFB48:
 749:Libraries/STM32F10x_StdPeriph_Driver/src/stm32f10x_adc.c **** 
 750:Libraries/STM32F10x_StdPeriph_Driver/src/stm32f10x_adc.c **** /**
 751:Libraries/STM32F10x_StdPeriph_Driver/src/stm32f10x_adc.c ****   * @brief  Enables or disables the discontinuous mode for injected group
 752:Libraries/STM32F10x_StdPeriph_Driver/src/stm32f10x_adc.c ****   *   channel for the specified ADC
 753:Libraries/STM32F10x_StdPeriph_Driver/src/stm32f10x_adc.c ****   * @param  ADCx: where x can be 1, 2 or 3 to select the ADC peripheral.
 754:Libraries/STM32F10x_StdPeriph_Driver/src/stm32f10x_adc.c ****   * @param  NewState: new state of the selected ADC discontinuous mode
 755:Libraries/STM32F10x_StdPeriph_Driver/src/stm32f10x_adc.c ****   *   on injected group channel.
 756:Libraries/STM32F10x_StdPeriph_Driver/src/stm32f10x_adc.c ****   *   This parameter can be: ENABLE or DISABLE.
 757:Libraries/STM32F10x_StdPeriph_Driver/src/stm32f10x_adc.c ****   * @retval None
 758:Libraries/STM32F10x_StdPeriph_Driver/src/stm32f10x_adc.c ****   */
 759:Libraries/STM32F10x_StdPeriph_Driver/src/stm32f10x_adc.c **** void ADC_InjectedDiscModeCmd(ADC_TypeDef* ADCx, FunctionalState NewState)
 760:Libraries/STM32F10x_StdPeriph_Driver/src/stm32f10x_adc.c **** {
 1286              		.loc 1 760 0
 1287              		.cfi_startproc
 1288              		@ args = 0, pretend = 0, frame = 8
 1289              		@ frame_needed = 1, uses_anonymous_args = 0
 1290              		@ link register save eliminated.
 1291 0000 80B4     		push	{r7}
 1292              	.LCFI56:
 1293              		.cfi_def_cfa_offset 4
 1294 0002 83B0     		sub	sp, sp, #12
 1295              	.LCFI57:
 1296              		.cfi_def_cfa_offset 16
 1297 0004 00AF     		add	r7, sp, #0
 1298              		.cfi_offset 7, -4
 1299              	.LCFI58:
 1300              		.cfi_def_cfa_register 7
 1301 0006 7860     		str	r0, [r7, #4]
 1302 0008 0B46     		mov	r3, r1
 1303 000a FB70     		strb	r3, [r7, #3]
 761:Libraries/STM32F10x_StdPeriph_Driver/src/stm32f10x_adc.c ****   /* Check the parameters */
 762:Libraries/STM32F10x_StdPeriph_Driver/src/stm32f10x_adc.c ****   assert_param(IS_ADC_ALL_PERIPH(ADCx));
 763:Libraries/STM32F10x_StdPeriph_Driver/src/stm32f10x_adc.c ****   assert_param(IS_FUNCTIONAL_STATE(NewState));
 764:Libraries/STM32F10x_StdPeriph_Driver/src/stm32f10x_adc.c ****   if (NewState != DISABLE)
 1304              		.loc 1 764 0
 1305 000c FB78     		ldrb	r3, [r7, #3]	@ zero_extendqisi2
 1306 000e 002B     		cmp	r3, #0
 1307 0010 06D0     		beq	.L68
 765:Libraries/STM32F10x_StdPeriph_Driver/src/stm32f10x_adc.c ****   {
 766:Libraries/STM32F10x_StdPeriph_Driver/src/stm32f10x_adc.c ****     /* Enable the selected ADC injected discontinuous mode */
 767:Libraries/STM32F10x_StdPeriph_Driver/src/stm32f10x_adc.c ****     ADCx->CR1 |= CR1_JDISCEN_Set;
 1308              		.loc 1 767 0
 1309 0012 7B68     		ldr	r3, [r7, #4]
 1310 0014 5B68     		ldr	r3, [r3, #4]
 1311 0016 43F48052 		orr	r2, r3, #4096
 1312 001a 7B68     		ldr	r3, [r7, #4]
 1313 001c 5A60     		str	r2, [r3, #4]
 1314 001e 05E0     		b	.L70
 1315              	.L68:
 768:Libraries/STM32F10x_StdPeriph_Driver/src/stm32f10x_adc.c ****   }
 769:Libraries/STM32F10x_StdPeriph_Driver/src/stm32f10x_adc.c ****   else
 770:Libraries/STM32F10x_StdPeriph_Driver/src/stm32f10x_adc.c ****   {
 771:Libraries/STM32F10x_StdPeriph_Driver/src/stm32f10x_adc.c ****     /* Disable the selected ADC injected discontinuous mode */
 772:Libraries/STM32F10x_StdPeriph_Driver/src/stm32f10x_adc.c ****     ADCx->CR1 &= CR1_JDISCEN_Reset;
 1316              		.loc 1 772 0
 1317 0020 7B68     		ldr	r3, [r7, #4]
 1318 0022 5B68     		ldr	r3, [r3, #4]
 1319 0024 23F48052 		bic	r2, r3, #4096
 1320 0028 7B68     		ldr	r3, [r7, #4]
 1321 002a 5A60     		str	r2, [r3, #4]
 1322              	.L70:
 773:Libraries/STM32F10x_StdPeriph_Driver/src/stm32f10x_adc.c ****   }
 774:Libraries/STM32F10x_StdPeriph_Driver/src/stm32f10x_adc.c **** }
 1323              		.loc 1 774 0
 1324 002c 07F10C07 		add	r7, r7, #12
 1325 0030 BD46     		mov	sp, r7
 1326 0032 80BC     		pop	{r7}
 1327 0034 7047     		bx	lr
 1328              		.cfi_endproc
 1329              	.LFE48:
 1331 0036 00BF     		.section	.text.ADC_ExternalTrigInjectedConvConfig,"ax",%progbits
 1332              		.align	2
 1333              		.global	ADC_ExternalTrigInjectedConvConfig
 1334              		.thumb
 1335              		.thumb_func
 1337              	ADC_ExternalTrigInjectedConvConfig:
 1338              	.LFB49:
 775:Libraries/STM32F10x_StdPeriph_Driver/src/stm32f10x_adc.c **** 
 776:Libraries/STM32F10x_StdPeriph_Driver/src/stm32f10x_adc.c **** /**
 777:Libraries/STM32F10x_StdPeriph_Driver/src/stm32f10x_adc.c ****   * @brief  Configures the ADCx external trigger for injected channels conversion.
 778:Libraries/STM32F10x_StdPeriph_Driver/src/stm32f10x_adc.c ****   * @param  ADCx: where x can be 1, 2 or 3 to select the ADC peripheral.
 779:Libraries/STM32F10x_StdPeriph_Driver/src/stm32f10x_adc.c ****   * @param  ADC_ExternalTrigInjecConv: specifies the ADC trigger to start injected conversion. 
 780:Libraries/STM32F10x_StdPeriph_Driver/src/stm32f10x_adc.c ****   *   This parameter can be one of the following values:
 781:Libraries/STM32F10x_StdPeriph_Driver/src/stm32f10x_adc.c ****   *     @arg ADC_ExternalTrigInjecConv_T1_TRGO: Timer1 TRGO event selected (for ADC1, ADC2 and ADC3
 782:Libraries/STM32F10x_StdPeriph_Driver/src/stm32f10x_adc.c ****   *     @arg ADC_ExternalTrigInjecConv_T1_CC4: Timer1 capture compare4 selected (for ADC1, ADC2 and
 783:Libraries/STM32F10x_StdPeriph_Driver/src/stm32f10x_adc.c ****   *     @arg ADC_ExternalTrigInjecConv_T2_TRGO: Timer2 TRGO event selected (for ADC1 and ADC2)
 784:Libraries/STM32F10x_StdPeriph_Driver/src/stm32f10x_adc.c ****   *     @arg ADC_ExternalTrigInjecConv_T2_CC1: Timer2 capture compare1 selected (for ADC1 and ADC2)
 785:Libraries/STM32F10x_StdPeriph_Driver/src/stm32f10x_adc.c ****   *     @arg ADC_ExternalTrigInjecConv_T3_CC4: Timer3 capture compare4 selected (for ADC1 and ADC2)
 786:Libraries/STM32F10x_StdPeriph_Driver/src/stm32f10x_adc.c ****   *     @arg ADC_ExternalTrigInjecConv_T4_TRGO: Timer4 TRGO event selected (for ADC1 and ADC2)
 787:Libraries/STM32F10x_StdPeriph_Driver/src/stm32f10x_adc.c ****   *     @arg ADC_ExternalTrigInjecConv_Ext_IT15_TIM8_CC4: External interrupt line 15 or Timer8
 788:Libraries/STM32F10x_StdPeriph_Driver/src/stm32f10x_adc.c ****   *                                                       capture compare4 event selected (for ADC1
 789:Libraries/STM32F10x_StdPeriph_Driver/src/stm32f10x_adc.c ****   *     @arg ADC_ExternalTrigInjecConv_T4_CC3: Timer4 capture compare3 selected (for ADC3 only)
 790:Libraries/STM32F10x_StdPeriph_Driver/src/stm32f10x_adc.c ****   *     @arg ADC_ExternalTrigInjecConv_T8_CC2: Timer8 capture compare2 selected (for ADC3 only)    
 791:Libraries/STM32F10x_StdPeriph_Driver/src/stm32f10x_adc.c ****   *     @arg ADC_ExternalTrigInjecConv_T8_CC4: Timer8 capture compare4 selected (for ADC3 only)
 792:Libraries/STM32F10x_StdPeriph_Driver/src/stm32f10x_adc.c ****   *     @arg ADC_ExternalTrigInjecConv_T5_TRGO: Timer5 TRGO event selected (for ADC3 only)         
 793:Libraries/STM32F10x_StdPeriph_Driver/src/stm32f10x_adc.c ****   *     @arg ADC_ExternalTrigInjecConv_T5_CC4: Timer5 capture compare4 selected (for ADC3 only)    
 794:Libraries/STM32F10x_StdPeriph_Driver/src/stm32f10x_adc.c ****   *     @arg ADC_ExternalTrigInjecConv_None: Injected conversion started by software and not
 795:Libraries/STM32F10x_StdPeriph_Driver/src/stm32f10x_adc.c ****   *                                          by external trigger (for ADC1, ADC2 and ADC3)
 796:Libraries/STM32F10x_StdPeriph_Driver/src/stm32f10x_adc.c ****   * @retval None
 797:Libraries/STM32F10x_StdPeriph_Driver/src/stm32f10x_adc.c ****   */
 798:Libraries/STM32F10x_StdPeriph_Driver/src/stm32f10x_adc.c **** void ADC_ExternalTrigInjectedConvConfig(ADC_TypeDef* ADCx, uint32_t ADC_ExternalTrigInjecConv)
 799:Libraries/STM32F10x_StdPeriph_Driver/src/stm32f10x_adc.c **** {
 1339              		.loc 1 799 0
 1340              		.cfi_startproc
 1341              		@ args = 0, pretend = 0, frame = 16
 1342              		@ frame_needed = 1, uses_anonymous_args = 0
 1343              		@ link register save eliminated.
 1344 0000 80B4     		push	{r7}
 1345              	.LCFI59:
 1346              		.cfi_def_cfa_offset 4
 1347 0002 85B0     		sub	sp, sp, #20
 1348              	.LCFI60:
 1349              		.cfi_def_cfa_offset 24
 1350 0004 00AF     		add	r7, sp, #0
 1351              		.cfi_offset 7, -4
 1352              	.LCFI61:
 1353              		.cfi_def_cfa_register 7
 1354 0006 7860     		str	r0, [r7, #4]
 1355 0008 3960     		str	r1, [r7, #0]
 800:Libraries/STM32F10x_StdPeriph_Driver/src/stm32f10x_adc.c ****   uint32_t tmpreg = 0;
 1356              		.loc 1 800 0
 1357 000a 4FF00003 		mov	r3, #0
 1358 000e FB60     		str	r3, [r7, #12]
 801:Libraries/STM32F10x_StdPeriph_Driver/src/stm32f10x_adc.c ****   /* Check the parameters */
 802:Libraries/STM32F10x_StdPeriph_Driver/src/stm32f10x_adc.c ****   assert_param(IS_ADC_ALL_PERIPH(ADCx));
 803:Libraries/STM32F10x_StdPeriph_Driver/src/stm32f10x_adc.c ****   assert_param(IS_ADC_EXT_INJEC_TRIG(ADC_ExternalTrigInjecConv));
 804:Libraries/STM32F10x_StdPeriph_Driver/src/stm32f10x_adc.c ****   /* Get the old register value */
 805:Libraries/STM32F10x_StdPeriph_Driver/src/stm32f10x_adc.c ****   tmpreg = ADCx->CR2;
 1359              		.loc 1 805 0
 1360 0010 7B68     		ldr	r3, [r7, #4]
 1361 0012 9B68     		ldr	r3, [r3, #8]
 1362 0014 FB60     		str	r3, [r7, #12]
 806:Libraries/STM32F10x_StdPeriph_Driver/src/stm32f10x_adc.c ****   /* Clear the old external event selection for injected group */
 807:Libraries/STM32F10x_StdPeriph_Driver/src/stm32f10x_adc.c ****   tmpreg &= CR2_JEXTSEL_Reset;
 1363              		.loc 1 807 0
 1364 0016 FB68     		ldr	r3, [r7, #12]
 1365 0018 23F4E043 		bic	r3, r3, #28672
 1366 001c FB60     		str	r3, [r7, #12]
 808:Libraries/STM32F10x_StdPeriph_Driver/src/stm32f10x_adc.c ****   /* Set the external event selection for injected group */
 809:Libraries/STM32F10x_StdPeriph_Driver/src/stm32f10x_adc.c ****   tmpreg |= ADC_ExternalTrigInjecConv;
 1367              		.loc 1 809 0
 1368 001e FA68     		ldr	r2, [r7, #12]
 1369 0020 3B68     		ldr	r3, [r7, #0]
 1370 0022 42EA0303 		orr	r3, r2, r3
 1371 0026 FB60     		str	r3, [r7, #12]
 810:Libraries/STM32F10x_StdPeriph_Driver/src/stm32f10x_adc.c ****   /* Store the new register value */
 811:Libraries/STM32F10x_StdPeriph_Driver/src/stm32f10x_adc.c ****   ADCx->CR2 = tmpreg;
 1372              		.loc 1 811 0
 1373 0028 7B68     		ldr	r3, [r7, #4]
 1374 002a FA68     		ldr	r2, [r7, #12]
 1375 002c 9A60     		str	r2, [r3, #8]
 812:Libraries/STM32F10x_StdPeriph_Driver/src/stm32f10x_adc.c **** }
 1376              		.loc 1 812 0
 1377 002e 07F11407 		add	r7, r7, #20
 1378 0032 BD46     		mov	sp, r7
 1379 0034 80BC     		pop	{r7}
 1380 0036 7047     		bx	lr
 1381              		.cfi_endproc
 1382              	.LFE49:
 1384              		.section	.text.ADC_ExternalTrigInjectedConvCmd,"ax",%progbits
 1385              		.align	2
 1386              		.global	ADC_ExternalTrigInjectedConvCmd
 1387              		.thumb
 1388              		.thumb_func
 1390              	ADC_ExternalTrigInjectedConvCmd:
 1391              	.LFB50:
 813:Libraries/STM32F10x_StdPeriph_Driver/src/stm32f10x_adc.c **** 
 814:Libraries/STM32F10x_StdPeriph_Driver/src/stm32f10x_adc.c **** /**
 815:Libraries/STM32F10x_StdPeriph_Driver/src/stm32f10x_adc.c ****   * @brief  Enables or disables the ADCx injected channels conversion through
 816:Libraries/STM32F10x_StdPeriph_Driver/src/stm32f10x_adc.c ****   *   external trigger
 817:Libraries/STM32F10x_StdPeriph_Driver/src/stm32f10x_adc.c ****   * @param  ADCx: where x can be 1, 2 or 3 to select the ADC peripheral.
 818:Libraries/STM32F10x_StdPeriph_Driver/src/stm32f10x_adc.c ****   * @param  NewState: new state of the selected ADC external trigger start of
 819:Libraries/STM32F10x_StdPeriph_Driver/src/stm32f10x_adc.c ****   *   injected conversion.
 820:Libraries/STM32F10x_StdPeriph_Driver/src/stm32f10x_adc.c ****   *   This parameter can be: ENABLE or DISABLE.
 821:Libraries/STM32F10x_StdPeriph_Driver/src/stm32f10x_adc.c ****   * @retval None
 822:Libraries/STM32F10x_StdPeriph_Driver/src/stm32f10x_adc.c ****   */
 823:Libraries/STM32F10x_StdPeriph_Driver/src/stm32f10x_adc.c **** void ADC_ExternalTrigInjectedConvCmd(ADC_TypeDef* ADCx, FunctionalState NewState)
 824:Libraries/STM32F10x_StdPeriph_Driver/src/stm32f10x_adc.c **** {
 1392              		.loc 1 824 0
 1393              		.cfi_startproc
 1394              		@ args = 0, pretend = 0, frame = 8
 1395              		@ frame_needed = 1, uses_anonymous_args = 0
 1396              		@ link register save eliminated.
 1397 0000 80B4     		push	{r7}
 1398              	.LCFI62:
 1399              		.cfi_def_cfa_offset 4
 1400 0002 83B0     		sub	sp, sp, #12
 1401              	.LCFI63:
 1402              		.cfi_def_cfa_offset 16
 1403 0004 00AF     		add	r7, sp, #0
 1404              		.cfi_offset 7, -4
 1405              	.LCFI64:
 1406              		.cfi_def_cfa_register 7
 1407 0006 7860     		str	r0, [r7, #4]
 1408 0008 0B46     		mov	r3, r1
 1409 000a FB70     		strb	r3, [r7, #3]
 825:Libraries/STM32F10x_StdPeriph_Driver/src/stm32f10x_adc.c ****   /* Check the parameters */
 826:Libraries/STM32F10x_StdPeriph_Driver/src/stm32f10x_adc.c ****   assert_param(IS_ADC_ALL_PERIPH(ADCx));
 827:Libraries/STM32F10x_StdPeriph_Driver/src/stm32f10x_adc.c ****   assert_param(IS_FUNCTIONAL_STATE(NewState));
 828:Libraries/STM32F10x_StdPeriph_Driver/src/stm32f10x_adc.c ****   if (NewState != DISABLE)
 1410              		.loc 1 828 0
 1411 000c FB78     		ldrb	r3, [r7, #3]	@ zero_extendqisi2
 1412 000e 002B     		cmp	r3, #0
 1413 0010 06D0     		beq	.L74
 829:Libraries/STM32F10x_StdPeriph_Driver/src/stm32f10x_adc.c ****   {
 830:Libraries/STM32F10x_StdPeriph_Driver/src/stm32f10x_adc.c ****     /* Enable the selected ADC external event selection for injected group */
 831:Libraries/STM32F10x_StdPeriph_Driver/src/stm32f10x_adc.c ****     ADCx->CR2 |= CR2_JEXTTRIG_Set;
 1414              		.loc 1 831 0
 1415 0012 7B68     		ldr	r3, [r7, #4]
 1416 0014 9B68     		ldr	r3, [r3, #8]
 1417 0016 43F40042 		orr	r2, r3, #32768
 1418 001a 7B68     		ldr	r3, [r7, #4]
 1419 001c 9A60     		str	r2, [r3, #8]
 1420 001e 05E0     		b	.L76
 1421              	.L74:
 832:Libraries/STM32F10x_StdPeriph_Driver/src/stm32f10x_adc.c ****   }
 833:Libraries/STM32F10x_StdPeriph_Driver/src/stm32f10x_adc.c ****   else
 834:Libraries/STM32F10x_StdPeriph_Driver/src/stm32f10x_adc.c ****   {
 835:Libraries/STM32F10x_StdPeriph_Driver/src/stm32f10x_adc.c ****     /* Disable the selected ADC external event selection for injected group */
 836:Libraries/STM32F10x_StdPeriph_Driver/src/stm32f10x_adc.c ****     ADCx->CR2 &= CR2_JEXTTRIG_Reset;
 1422              		.loc 1 836 0
 1423 0020 7B68     		ldr	r3, [r7, #4]
 1424 0022 9B68     		ldr	r3, [r3, #8]
 1425 0024 23F40042 		bic	r2, r3, #32768
 1426 0028 7B68     		ldr	r3, [r7, #4]
 1427 002a 9A60     		str	r2, [r3, #8]
 1428              	.L76:
 837:Libraries/STM32F10x_StdPeriph_Driver/src/stm32f10x_adc.c ****   }
 838:Libraries/STM32F10x_StdPeriph_Driver/src/stm32f10x_adc.c **** }
 1429              		.loc 1 838 0
 1430 002c 07F10C07 		add	r7, r7, #12
 1431 0030 BD46     		mov	sp, r7
 1432 0032 80BC     		pop	{r7}
 1433 0034 7047     		bx	lr
 1434              		.cfi_endproc
 1435              	.LFE50:
 1437 0036 00BF     		.section	.text.ADC_SoftwareStartInjectedConvCmd,"ax",%progbits
 1438              		.align	2
 1439              		.global	ADC_SoftwareStartInjectedConvCmd
 1440              		.thumb
 1441              		.thumb_func
 1443              	ADC_SoftwareStartInjectedConvCmd:
 1444              	.LFB51:
 839:Libraries/STM32F10x_StdPeriph_Driver/src/stm32f10x_adc.c **** 
 840:Libraries/STM32F10x_StdPeriph_Driver/src/stm32f10x_adc.c **** /**
 841:Libraries/STM32F10x_StdPeriph_Driver/src/stm32f10x_adc.c ****   * @brief  Enables or disables the selected ADC start of the injected 
 842:Libraries/STM32F10x_StdPeriph_Driver/src/stm32f10x_adc.c ****   *   channels conversion.
 843:Libraries/STM32F10x_StdPeriph_Driver/src/stm32f10x_adc.c ****   * @param  ADCx: where x can be 1, 2 or 3 to select the ADC peripheral.
 844:Libraries/STM32F10x_StdPeriph_Driver/src/stm32f10x_adc.c ****   * @param  NewState: new state of the selected ADC software start injected conversion.
 845:Libraries/STM32F10x_StdPeriph_Driver/src/stm32f10x_adc.c ****   *   This parameter can be: ENABLE or DISABLE.
 846:Libraries/STM32F10x_StdPeriph_Driver/src/stm32f10x_adc.c ****   * @retval None
 847:Libraries/STM32F10x_StdPeriph_Driver/src/stm32f10x_adc.c ****   */
 848:Libraries/STM32F10x_StdPeriph_Driver/src/stm32f10x_adc.c **** void ADC_SoftwareStartInjectedConvCmd(ADC_TypeDef* ADCx, FunctionalState NewState)
 849:Libraries/STM32F10x_StdPeriph_Driver/src/stm32f10x_adc.c **** {
 1445              		.loc 1 849 0
 1446              		.cfi_startproc
 1447              		@ args = 0, pretend = 0, frame = 8
 1448              		@ frame_needed = 1, uses_anonymous_args = 0
 1449              		@ link register save eliminated.
 1450 0000 80B4     		push	{r7}
 1451              	.LCFI65:
 1452              		.cfi_def_cfa_offset 4
 1453 0002 83B0     		sub	sp, sp, #12
 1454              	.LCFI66:
 1455              		.cfi_def_cfa_offset 16
 1456 0004 00AF     		add	r7, sp, #0
 1457              		.cfi_offset 7, -4
 1458              	.LCFI67:
 1459              		.cfi_def_cfa_register 7
 1460 0006 7860     		str	r0, [r7, #4]
 1461 0008 0B46     		mov	r3, r1
 1462 000a FB70     		strb	r3, [r7, #3]
 850:Libraries/STM32F10x_StdPeriph_Driver/src/stm32f10x_adc.c ****   /* Check the parameters */
 851:Libraries/STM32F10x_StdPeriph_Driver/src/stm32f10x_adc.c ****   assert_param(IS_ADC_ALL_PERIPH(ADCx));
 852:Libraries/STM32F10x_StdPeriph_Driver/src/stm32f10x_adc.c ****   assert_param(IS_FUNCTIONAL_STATE(NewState));
 853:Libraries/STM32F10x_StdPeriph_Driver/src/stm32f10x_adc.c ****   if (NewState != DISABLE)
 1463              		.loc 1 853 0
 1464 000c FB78     		ldrb	r3, [r7, #3]	@ zero_extendqisi2
 1465 000e 002B     		cmp	r3, #0
 1466 0010 06D0     		beq	.L78
 854:Libraries/STM32F10x_StdPeriph_Driver/src/stm32f10x_adc.c ****   {
 855:Libraries/STM32F10x_StdPeriph_Driver/src/stm32f10x_adc.c ****     /* Enable the selected ADC conversion for injected group on external event and start the select
 856:Libraries/STM32F10x_StdPeriph_Driver/src/stm32f10x_adc.c ****        ADC injected conversion */
 857:Libraries/STM32F10x_StdPeriph_Driver/src/stm32f10x_adc.c ****     ADCx->CR2 |= CR2_JEXTTRIG_JSWSTART_Set;
 1467              		.loc 1 857 0
 1468 0012 7B68     		ldr	r3, [r7, #4]
 1469 0014 9B68     		ldr	r3, [r3, #8]
 1470 0016 43F40212 		orr	r2, r3, #2129920
 1471 001a 7B68     		ldr	r3, [r7, #4]
 1472 001c 9A60     		str	r2, [r3, #8]
 1473 001e 05E0     		b	.L80
 1474              	.L78:
 858:Libraries/STM32F10x_StdPeriph_Driver/src/stm32f10x_adc.c ****   }
 859:Libraries/STM32F10x_StdPeriph_Driver/src/stm32f10x_adc.c ****   else
 860:Libraries/STM32F10x_StdPeriph_Driver/src/stm32f10x_adc.c ****   {
 861:Libraries/STM32F10x_StdPeriph_Driver/src/stm32f10x_adc.c ****     /* Disable the selected ADC conversion on external event for injected group and stop the select
 862:Libraries/STM32F10x_StdPeriph_Driver/src/stm32f10x_adc.c ****        ADC injected conversion */
 863:Libraries/STM32F10x_StdPeriph_Driver/src/stm32f10x_adc.c ****     ADCx->CR2 &= CR2_JEXTTRIG_JSWSTART_Reset;
 1475              		.loc 1 863 0
 1476 0020 7B68     		ldr	r3, [r7, #4]
 1477 0022 9B68     		ldr	r3, [r3, #8]
 1478 0024 23F40212 		bic	r2, r3, #2129920
 1479 0028 7B68     		ldr	r3, [r7, #4]
 1480 002a 9A60     		str	r2, [r3, #8]
 1481              	.L80:
 864:Libraries/STM32F10x_StdPeriph_Driver/src/stm32f10x_adc.c ****   }
 865:Libraries/STM32F10x_StdPeriph_Driver/src/stm32f10x_adc.c **** }
 1482              		.loc 1 865 0
 1483 002c 07F10C07 		add	r7, r7, #12
 1484 0030 BD46     		mov	sp, r7
 1485 0032 80BC     		pop	{r7}
 1486 0034 7047     		bx	lr
 1487              		.cfi_endproc
 1488              	.LFE51:
 1490 0036 00BF     		.section	.text.ADC_GetSoftwareStartInjectedConvCmdStatus,"ax",%progbits
 1491              		.align	2
 1492              		.global	ADC_GetSoftwareStartInjectedConvCmdStatus
 1493              		.thumb
 1494              		.thumb_func
 1496              	ADC_GetSoftwareStartInjectedConvCmdStatus:
 1497              	.LFB52:
 866:Libraries/STM32F10x_StdPeriph_Driver/src/stm32f10x_adc.c **** 
 867:Libraries/STM32F10x_StdPeriph_Driver/src/stm32f10x_adc.c **** /**
 868:Libraries/STM32F10x_StdPeriph_Driver/src/stm32f10x_adc.c ****   * @brief  Gets the selected ADC Software start injected conversion Status.
 869:Libraries/STM32F10x_StdPeriph_Driver/src/stm32f10x_adc.c ****   * @param  ADCx: where x can be 1, 2 or 3 to select the ADC peripheral.
 870:Libraries/STM32F10x_StdPeriph_Driver/src/stm32f10x_adc.c ****   * @retval The new state of ADC software start injected conversion (SET or RESET).
 871:Libraries/STM32F10x_StdPeriph_Driver/src/stm32f10x_adc.c ****   */
 872:Libraries/STM32F10x_StdPeriph_Driver/src/stm32f10x_adc.c **** FlagStatus ADC_GetSoftwareStartInjectedConvCmdStatus(ADC_TypeDef* ADCx)
 873:Libraries/STM32F10x_StdPeriph_Driver/src/stm32f10x_adc.c **** {
 1498              		.loc 1 873 0
 1499              		.cfi_startproc
 1500              		@ args = 0, pretend = 0, frame = 16
 1501              		@ frame_needed = 1, uses_anonymous_args = 0
 1502              		@ link register save eliminated.
 1503 0000 80B4     		push	{r7}
 1504              	.LCFI68:
 1505              		.cfi_def_cfa_offset 4
 1506 0002 85B0     		sub	sp, sp, #20
 1507              	.LCFI69:
 1508              		.cfi_def_cfa_offset 24
 1509 0004 00AF     		add	r7, sp, #0
 1510              		.cfi_offset 7, -4
 1511              	.LCFI70:
 1512              		.cfi_def_cfa_register 7
 1513 0006 7860     		str	r0, [r7, #4]
 874:Libraries/STM32F10x_StdPeriph_Driver/src/stm32f10x_adc.c ****   FlagStatus bitstatus = RESET;
 1514              		.loc 1 874 0
 1515 0008 4FF00003 		mov	r3, #0
 1516 000c FB73     		strb	r3, [r7, #15]
 875:Libraries/STM32F10x_StdPeriph_Driver/src/stm32f10x_adc.c ****   /* Check the parameters */
 876:Libraries/STM32F10x_StdPeriph_Driver/src/stm32f10x_adc.c ****   assert_param(IS_ADC_ALL_PERIPH(ADCx));
 877:Libraries/STM32F10x_StdPeriph_Driver/src/stm32f10x_adc.c ****   /* Check the status of JSWSTART bit */
 878:Libraries/STM32F10x_StdPeriph_Driver/src/stm32f10x_adc.c ****   if ((ADCx->CR2 & CR2_JSWSTART_Set) != (uint32_t)RESET)
 1517              		.loc 1 878 0
 1518 000e 7B68     		ldr	r3, [r7, #4]
 1519 0010 9B68     		ldr	r3, [r3, #8]
 1520 0012 03F40013 		and	r3, r3, #2097152
 1521 0016 002B     		cmp	r3, #0
 1522 0018 03D0     		beq	.L82
 879:Libraries/STM32F10x_StdPeriph_Driver/src/stm32f10x_adc.c ****   {
 880:Libraries/STM32F10x_StdPeriph_Driver/src/stm32f10x_adc.c ****     /* JSWSTART bit is set */
 881:Libraries/STM32F10x_StdPeriph_Driver/src/stm32f10x_adc.c ****     bitstatus = SET;
 1523              		.loc 1 881 0
 1524 001a 4FF00103 		mov	r3, #1
 1525 001e FB73     		strb	r3, [r7, #15]
 1526 0020 02E0     		b	.L83
 1527              	.L82:
 882:Libraries/STM32F10x_StdPeriph_Driver/src/stm32f10x_adc.c ****   }
 883:Libraries/STM32F10x_StdPeriph_Driver/src/stm32f10x_adc.c ****   else
 884:Libraries/STM32F10x_StdPeriph_Driver/src/stm32f10x_adc.c ****   {
 885:Libraries/STM32F10x_StdPeriph_Driver/src/stm32f10x_adc.c ****     /* JSWSTART bit is reset */
 886:Libraries/STM32F10x_StdPeriph_Driver/src/stm32f10x_adc.c ****     bitstatus = RESET;
 1528              		.loc 1 886 0
 1529 0022 4FF00003 		mov	r3, #0
 1530 0026 FB73     		strb	r3, [r7, #15]
 1531              	.L83:
 887:Libraries/STM32F10x_StdPeriph_Driver/src/stm32f10x_adc.c ****   }
 888:Libraries/STM32F10x_StdPeriph_Driver/src/stm32f10x_adc.c ****   /* Return the JSWSTART bit status */
 889:Libraries/STM32F10x_StdPeriph_Driver/src/stm32f10x_adc.c ****   return  bitstatus;
 1532              		.loc 1 889 0
 1533 0028 FB7B     		ldrb	r3, [r7, #15]	@ zero_extendqisi2
 890:Libraries/STM32F10x_StdPeriph_Driver/src/stm32f10x_adc.c **** }
 1534              		.loc 1 890 0
 1535 002a 1846     		mov	r0, r3
 1536 002c 07F11407 		add	r7, r7, #20
 1537 0030 BD46     		mov	sp, r7
 1538 0032 80BC     		pop	{r7}
 1539 0034 7047     		bx	lr
 1540              		.cfi_endproc
 1541              	.LFE52:
 1543 0036 00BF     		.section	.text.ADC_InjectedChannelConfig,"ax",%progbits
 1544              		.align	2
 1545              		.global	ADC_InjectedChannelConfig
 1546              		.thumb
 1547              		.thumb_func
 1549              	ADC_InjectedChannelConfig:
 1550              	.LFB53:
 891:Libraries/STM32F10x_StdPeriph_Driver/src/stm32f10x_adc.c **** 
 892:Libraries/STM32F10x_StdPeriph_Driver/src/stm32f10x_adc.c **** /**
 893:Libraries/STM32F10x_StdPeriph_Driver/src/stm32f10x_adc.c ****   * @brief  Configures for the selected ADC injected channel its corresponding
 894:Libraries/STM32F10x_StdPeriph_Driver/src/stm32f10x_adc.c ****   *   rank in the sequencer and its sample time.
 895:Libraries/STM32F10x_StdPeriph_Driver/src/stm32f10x_adc.c ****   * @param  ADCx: where x can be 1, 2 or 3 to select the ADC peripheral.
 896:Libraries/STM32F10x_StdPeriph_Driver/src/stm32f10x_adc.c ****   * @param  ADC_Channel: the ADC channel to configure. 
 897:Libraries/STM32F10x_StdPeriph_Driver/src/stm32f10x_adc.c ****   *   This parameter can be one of the following values:
 898:Libraries/STM32F10x_StdPeriph_Driver/src/stm32f10x_adc.c ****   *     @arg ADC_Channel_0: ADC Channel0 selected
 899:Libraries/STM32F10x_StdPeriph_Driver/src/stm32f10x_adc.c ****   *     @arg ADC_Channel_1: ADC Channel1 selected
 900:Libraries/STM32F10x_StdPeriph_Driver/src/stm32f10x_adc.c ****   *     @arg ADC_Channel_2: ADC Channel2 selected
 901:Libraries/STM32F10x_StdPeriph_Driver/src/stm32f10x_adc.c ****   *     @arg ADC_Channel_3: ADC Channel3 selected
 902:Libraries/STM32F10x_StdPeriph_Driver/src/stm32f10x_adc.c ****   *     @arg ADC_Channel_4: ADC Channel4 selected
 903:Libraries/STM32F10x_StdPeriph_Driver/src/stm32f10x_adc.c ****   *     @arg ADC_Channel_5: ADC Channel5 selected
 904:Libraries/STM32F10x_StdPeriph_Driver/src/stm32f10x_adc.c ****   *     @arg ADC_Channel_6: ADC Channel6 selected
 905:Libraries/STM32F10x_StdPeriph_Driver/src/stm32f10x_adc.c ****   *     @arg ADC_Channel_7: ADC Channel7 selected
 906:Libraries/STM32F10x_StdPeriph_Driver/src/stm32f10x_adc.c ****   *     @arg ADC_Channel_8: ADC Channel8 selected
 907:Libraries/STM32F10x_StdPeriph_Driver/src/stm32f10x_adc.c ****   *     @arg ADC_Channel_9: ADC Channel9 selected
 908:Libraries/STM32F10x_StdPeriph_Driver/src/stm32f10x_adc.c ****   *     @arg ADC_Channel_10: ADC Channel10 selected
 909:Libraries/STM32F10x_StdPeriph_Driver/src/stm32f10x_adc.c ****   *     @arg ADC_Channel_11: ADC Channel11 selected
 910:Libraries/STM32F10x_StdPeriph_Driver/src/stm32f10x_adc.c ****   *     @arg ADC_Channel_12: ADC Channel12 selected
 911:Libraries/STM32F10x_StdPeriph_Driver/src/stm32f10x_adc.c ****   *     @arg ADC_Channel_13: ADC Channel13 selected
 912:Libraries/STM32F10x_StdPeriph_Driver/src/stm32f10x_adc.c ****   *     @arg ADC_Channel_14: ADC Channel14 selected
 913:Libraries/STM32F10x_StdPeriph_Driver/src/stm32f10x_adc.c ****   *     @arg ADC_Channel_15: ADC Channel15 selected
 914:Libraries/STM32F10x_StdPeriph_Driver/src/stm32f10x_adc.c ****   *     @arg ADC_Channel_16: ADC Channel16 selected
 915:Libraries/STM32F10x_StdPeriph_Driver/src/stm32f10x_adc.c ****   *     @arg ADC_Channel_17: ADC Channel17 selected
 916:Libraries/STM32F10x_StdPeriph_Driver/src/stm32f10x_adc.c ****   * @param  Rank: The rank in the injected group sequencer. This parameter must be between 1 and 4.
 917:Libraries/STM32F10x_StdPeriph_Driver/src/stm32f10x_adc.c ****   * @param  ADC_SampleTime: The sample time value to be set for the selected channel. 
 918:Libraries/STM32F10x_StdPeriph_Driver/src/stm32f10x_adc.c ****   *   This parameter can be one of the following values:
 919:Libraries/STM32F10x_StdPeriph_Driver/src/stm32f10x_adc.c ****   *     @arg ADC_SampleTime_1Cycles5: Sample time equal to 1.5 cycles
 920:Libraries/STM32F10x_StdPeriph_Driver/src/stm32f10x_adc.c ****   *     @arg ADC_SampleTime_7Cycles5: Sample time equal to 7.5 cycles
 921:Libraries/STM32F10x_StdPeriph_Driver/src/stm32f10x_adc.c ****   *     @arg ADC_SampleTime_13Cycles5: Sample time equal to 13.5 cycles
 922:Libraries/STM32F10x_StdPeriph_Driver/src/stm32f10x_adc.c ****   *     @arg ADC_SampleTime_28Cycles5: Sample time equal to 28.5 cycles	
 923:Libraries/STM32F10x_StdPeriph_Driver/src/stm32f10x_adc.c ****   *     @arg ADC_SampleTime_41Cycles5: Sample time equal to 41.5 cycles	
 924:Libraries/STM32F10x_StdPeriph_Driver/src/stm32f10x_adc.c ****   *     @arg ADC_SampleTime_55Cycles5: Sample time equal to 55.5 cycles	
 925:Libraries/STM32F10x_StdPeriph_Driver/src/stm32f10x_adc.c ****   *     @arg ADC_SampleTime_71Cycles5: Sample time equal to 71.5 cycles	
 926:Libraries/STM32F10x_StdPeriph_Driver/src/stm32f10x_adc.c ****   *     @arg ADC_SampleTime_239Cycles5: Sample time equal to 239.5 cycles	
 927:Libraries/STM32F10x_StdPeriph_Driver/src/stm32f10x_adc.c ****   * @retval None
 928:Libraries/STM32F10x_StdPeriph_Driver/src/stm32f10x_adc.c ****   */
 929:Libraries/STM32F10x_StdPeriph_Driver/src/stm32f10x_adc.c **** void ADC_InjectedChannelConfig(ADC_TypeDef* ADCx, uint8_t ADC_Channel, uint8_t Rank, uint8_t ADC_Sa
 930:Libraries/STM32F10x_StdPeriph_Driver/src/stm32f10x_adc.c **** {
 1551              		.loc 1 930 0
 1552              		.cfi_startproc
 1553              		@ args = 0, pretend = 0, frame = 24
 1554              		@ frame_needed = 1, uses_anonymous_args = 0
 1555              		@ link register save eliminated.
 1556 0000 80B4     		push	{r7}
 1557              	.LCFI71:
 1558              		.cfi_def_cfa_offset 4
 1559 0002 87B0     		sub	sp, sp, #28
 1560              	.LCFI72:
 1561              		.cfi_def_cfa_offset 32
 1562 0004 00AF     		add	r7, sp, #0
 1563              		.cfi_offset 7, -4
 1564              	.LCFI73:
 1565              		.cfi_def_cfa_register 7
 1566 0006 7860     		str	r0, [r7, #4]
 1567 0008 F970     		strb	r1, [r7, #3]
 1568 000a BA70     		strb	r2, [r7, #2]
 1569 000c 7B70     		strb	r3, [r7, #1]
 931:Libraries/STM32F10x_StdPeriph_Driver/src/stm32f10x_adc.c ****   uint32_t tmpreg1 = 0, tmpreg2 = 0, tmpreg3 = 0;
 1570              		.loc 1 931 0
 1571 000e 4FF00003 		mov	r3, #0
 1572 0012 FB60     		str	r3, [r7, #12]
 1573 0014 4FF00003 		mov	r3, #0
 1574 0018 3B61     		str	r3, [r7, #16]
 1575 001a 4FF00003 		mov	r3, #0
 1576 001e 7B61     		str	r3, [r7, #20]
 932:Libraries/STM32F10x_StdPeriph_Driver/src/stm32f10x_adc.c ****   /* Check the parameters */
 933:Libraries/STM32F10x_StdPeriph_Driver/src/stm32f10x_adc.c ****   assert_param(IS_ADC_ALL_PERIPH(ADCx));
 934:Libraries/STM32F10x_StdPeriph_Driver/src/stm32f10x_adc.c ****   assert_param(IS_ADC_CHANNEL(ADC_Channel));
 935:Libraries/STM32F10x_StdPeriph_Driver/src/stm32f10x_adc.c ****   assert_param(IS_ADC_INJECTED_RANK(Rank));
 936:Libraries/STM32F10x_StdPeriph_Driver/src/stm32f10x_adc.c ****   assert_param(IS_ADC_SAMPLE_TIME(ADC_SampleTime));
 937:Libraries/STM32F10x_StdPeriph_Driver/src/stm32f10x_adc.c ****   /* if ADC_Channel_10 ... ADC_Channel_17 is selected */
 938:Libraries/STM32F10x_StdPeriph_Driver/src/stm32f10x_adc.c ****   if (ADC_Channel > ADC_Channel_9)
 1577              		.loc 1 938 0
 1578 0020 FB78     		ldrb	r3, [r7, #3]	@ zero_extendqisi2
 1579 0022 092B     		cmp	r3, #9
 1580 0024 29D9     		bls	.L86
 939:Libraries/STM32F10x_StdPeriph_Driver/src/stm32f10x_adc.c ****   {
 940:Libraries/STM32F10x_StdPeriph_Driver/src/stm32f10x_adc.c ****     /* Get the old register value */
 941:Libraries/STM32F10x_StdPeriph_Driver/src/stm32f10x_adc.c ****     tmpreg1 = ADCx->SMPR1;
 1581              		.loc 1 941 0
 1582 0026 7B68     		ldr	r3, [r7, #4]
 1583 0028 DB68     		ldr	r3, [r3, #12]
 1584 002a FB60     		str	r3, [r7, #12]
 942:Libraries/STM32F10x_StdPeriph_Driver/src/stm32f10x_adc.c ****     /* Calculate the mask to clear */
 943:Libraries/STM32F10x_StdPeriph_Driver/src/stm32f10x_adc.c ****     tmpreg2 = SMPR1_SMP_Set << (3*(ADC_Channel - 10));
 1585              		.loc 1 943 0
 1586 002c FA78     		ldrb	r2, [r7, #3]	@ zero_extendqisi2
 1587 002e 1346     		mov	r3, r2
 1588 0030 4FEA4303 		lsl	r3, r3, #1
 1589 0034 1344     		add	r3, r3, r2
 1590 0036 A3F11E03 		sub	r3, r3, #30
 1591 003a 4FF00702 		mov	r2, #7
 1592 003e 02FA03F3 		lsl	r3, r2, r3
 1593 0042 3B61     		str	r3, [r7, #16]
 944:Libraries/STM32F10x_StdPeriph_Driver/src/stm32f10x_adc.c ****     /* Clear the old channel sample time */
 945:Libraries/STM32F10x_StdPeriph_Driver/src/stm32f10x_adc.c ****     tmpreg1 &= ~tmpreg2;
 1594              		.loc 1 945 0
 1595 0044 3B69     		ldr	r3, [r7, #16]
 1596 0046 6FEA0303 		mvn	r3, r3
 1597 004a FA68     		ldr	r2, [r7, #12]
 1598 004c 02EA0303 		and	r3, r2, r3
 1599 0050 FB60     		str	r3, [r7, #12]
 946:Libraries/STM32F10x_StdPeriph_Driver/src/stm32f10x_adc.c ****     /* Calculate the mask to set */
 947:Libraries/STM32F10x_StdPeriph_Driver/src/stm32f10x_adc.c ****     tmpreg2 = (uint32_t)ADC_SampleTime << (3*(ADC_Channel - 10));
 1600              		.loc 1 947 0
 1601 0052 7978     		ldrb	r1, [r7, #1]	@ zero_extendqisi2
 1602 0054 FA78     		ldrb	r2, [r7, #3]	@ zero_extendqisi2
 1603 0056 1346     		mov	r3, r2
 1604 0058 4FEA4303 		lsl	r3, r3, #1
 1605 005c 1344     		add	r3, r3, r2
 1606 005e A3F11E03 		sub	r3, r3, #30
 1607 0062 01FA03F3 		lsl	r3, r1, r3
 1608 0066 3B61     		str	r3, [r7, #16]
 948:Libraries/STM32F10x_StdPeriph_Driver/src/stm32f10x_adc.c ****     /* Set the new channel sample time */
 949:Libraries/STM32F10x_StdPeriph_Driver/src/stm32f10x_adc.c ****     tmpreg1 |= tmpreg2;
 1609              		.loc 1 949 0
 1610 0068 FA68     		ldr	r2, [r7, #12]
 1611 006a 3B69     		ldr	r3, [r7, #16]
 1612 006c 42EA0303 		orr	r3, r2, r3
 1613 0070 FB60     		str	r3, [r7, #12]
 950:Libraries/STM32F10x_StdPeriph_Driver/src/stm32f10x_adc.c ****     /* Store the new register value */
 951:Libraries/STM32F10x_StdPeriph_Driver/src/stm32f10x_adc.c ****     ADCx->SMPR1 = tmpreg1;
 1614              		.loc 1 951 0
 1615 0072 7B68     		ldr	r3, [r7, #4]
 1616 0074 FA68     		ldr	r2, [r7, #12]
 1617 0076 DA60     		str	r2, [r3, #12]
 1618 0078 24E0     		b	.L87
 1619              	.L86:
 952:Libraries/STM32F10x_StdPeriph_Driver/src/stm32f10x_adc.c ****   }
 953:Libraries/STM32F10x_StdPeriph_Driver/src/stm32f10x_adc.c ****   else /* ADC_Channel include in ADC_Channel_[0..9] */
 954:Libraries/STM32F10x_StdPeriph_Driver/src/stm32f10x_adc.c ****   {
 955:Libraries/STM32F10x_StdPeriph_Driver/src/stm32f10x_adc.c ****     /* Get the old register value */
 956:Libraries/STM32F10x_StdPeriph_Driver/src/stm32f10x_adc.c ****     tmpreg1 = ADCx->SMPR2;
 1620              		.loc 1 956 0
 1621 007a 7B68     		ldr	r3, [r7, #4]
 1622 007c 1B69     		ldr	r3, [r3, #16]
 1623 007e FB60     		str	r3, [r7, #12]
 957:Libraries/STM32F10x_StdPeriph_Driver/src/stm32f10x_adc.c ****     /* Calculate the mask to clear */
 958:Libraries/STM32F10x_StdPeriph_Driver/src/stm32f10x_adc.c ****     tmpreg2 = SMPR2_SMP_Set << (3 * ADC_Channel);
 1624              		.loc 1 958 0
 1625 0080 FA78     		ldrb	r2, [r7, #3]	@ zero_extendqisi2
 1626 0082 1346     		mov	r3, r2
 1627 0084 4FEA4303 		lsl	r3, r3, #1
 1628 0088 1344     		add	r3, r3, r2
 1629 008a 4FF00702 		mov	r2, #7
 1630 008e 02FA03F3 		lsl	r3, r2, r3
 1631 0092 3B61     		str	r3, [r7, #16]
 959:Libraries/STM32F10x_StdPeriph_Driver/src/stm32f10x_adc.c ****     /* Clear the old channel sample time */
 960:Libraries/STM32F10x_StdPeriph_Driver/src/stm32f10x_adc.c ****     tmpreg1 &= ~tmpreg2;
 1632              		.loc 1 960 0
 1633 0094 3B69     		ldr	r3, [r7, #16]
 1634 0096 6FEA0303 		mvn	r3, r3
 1635 009a FA68     		ldr	r2, [r7, #12]
 1636 009c 02EA0303 		and	r3, r2, r3
 1637 00a0 FB60     		str	r3, [r7, #12]
 961:Libraries/STM32F10x_StdPeriph_Driver/src/stm32f10x_adc.c ****     /* Calculate the mask to set */
 962:Libraries/STM32F10x_StdPeriph_Driver/src/stm32f10x_adc.c ****     tmpreg2 = (uint32_t)ADC_SampleTime << (3 * ADC_Channel);
 1638              		.loc 1 962 0
 1639 00a2 7978     		ldrb	r1, [r7, #1]	@ zero_extendqisi2
 1640 00a4 FA78     		ldrb	r2, [r7, #3]	@ zero_extendqisi2
 1641 00a6 1346     		mov	r3, r2
 1642 00a8 4FEA4303 		lsl	r3, r3, #1
 1643 00ac 1344     		add	r3, r3, r2
 1644 00ae 01FA03F3 		lsl	r3, r1, r3
 1645 00b2 3B61     		str	r3, [r7, #16]
 963:Libraries/STM32F10x_StdPeriph_Driver/src/stm32f10x_adc.c ****     /* Set the new channel sample time */
 964:Libraries/STM32F10x_StdPeriph_Driver/src/stm32f10x_adc.c ****     tmpreg1 |= tmpreg2;
 1646              		.loc 1 964 0
 1647 00b4 FA68     		ldr	r2, [r7, #12]
 1648 00b6 3B69     		ldr	r3, [r7, #16]
 1649 00b8 42EA0303 		orr	r3, r2, r3
 1650 00bc FB60     		str	r3, [r7, #12]
 965:Libraries/STM32F10x_StdPeriph_Driver/src/stm32f10x_adc.c ****     /* Store the new register value */
 966:Libraries/STM32F10x_StdPeriph_Driver/src/stm32f10x_adc.c ****     ADCx->SMPR2 = tmpreg1;
 1651              		.loc 1 966 0
 1652 00be 7B68     		ldr	r3, [r7, #4]
 1653 00c0 FA68     		ldr	r2, [r7, #12]
 1654 00c2 1A61     		str	r2, [r3, #16]
 1655              	.L87:
 967:Libraries/STM32F10x_StdPeriph_Driver/src/stm32f10x_adc.c ****   }
 968:Libraries/STM32F10x_StdPeriph_Driver/src/stm32f10x_adc.c ****   /* Rank configuration */
 969:Libraries/STM32F10x_StdPeriph_Driver/src/stm32f10x_adc.c ****   /* Get the old register value */
 970:Libraries/STM32F10x_StdPeriph_Driver/src/stm32f10x_adc.c ****   tmpreg1 = ADCx->JSQR;
 1656              		.loc 1 970 0
 1657 00c4 7B68     		ldr	r3, [r7, #4]
 1658 00c6 9B6B     		ldr	r3, [r3, #56]
 1659 00c8 FB60     		str	r3, [r7, #12]
 971:Libraries/STM32F10x_StdPeriph_Driver/src/stm32f10x_adc.c ****   /* Get JL value: Number = JL+1 */
 972:Libraries/STM32F10x_StdPeriph_Driver/src/stm32f10x_adc.c ****   tmpreg3 =  (tmpreg1 & JSQR_JL_Set)>> 20;
 1660              		.loc 1 972 0
 1661 00ca FB68     		ldr	r3, [r7, #12]
 1662 00cc 03F44013 		and	r3, r3, #3145728
 1663 00d0 4FEA1353 		lsr	r3, r3, #20
 1664 00d4 7B61     		str	r3, [r7, #20]
 973:Libraries/STM32F10x_StdPeriph_Driver/src/stm32f10x_adc.c ****   /* Calculate the mask to clear: ((Rank-1)+(4-JL-1)) */
 974:Libraries/STM32F10x_StdPeriph_Driver/src/stm32f10x_adc.c ****   tmpreg2 = JSQR_JSQ_Set << (5 * (uint8_t)((Rank + 3) - (tmpreg3 + 1)));
 1665              		.loc 1 974 0
 1666 00d6 7B69     		ldr	r3, [r7, #20]
 1667 00d8 DBB2     		uxtb	r3, r3
 1668 00da 6FEA0303 		mvn	r3, r3
 1669 00de DAB2     		uxtb	r2, r3
 1670 00e0 BB78     		ldrb	r3, [r7, #2]
 1671 00e2 1344     		add	r3, r2, r3
 1672 00e4 DBB2     		uxtb	r3, r3
 1673 00e6 03F10303 		add	r3, r3, #3
 1674 00ea DBB2     		uxtb	r3, r3
 1675 00ec 1A46     		mov	r2, r3
 1676 00ee 1346     		mov	r3, r2
 1677 00f0 4FEA8303 		lsl	r3, r3, #2
 1678 00f4 1344     		add	r3, r3, r2
 1679 00f6 4FF01F02 		mov	r2, #31
 1680 00fa 02FA03F3 		lsl	r3, r2, r3
 1681 00fe 3B61     		str	r3, [r7, #16]
 975:Libraries/STM32F10x_StdPeriph_Driver/src/stm32f10x_adc.c ****   /* Clear the old JSQx bits for the selected rank */
 976:Libraries/STM32F10x_StdPeriph_Driver/src/stm32f10x_adc.c ****   tmpreg1 &= ~tmpreg2;
 1682              		.loc 1 976 0
 1683 0100 3B69     		ldr	r3, [r7, #16]
 1684 0102 6FEA0303 		mvn	r3, r3
 1685 0106 FA68     		ldr	r2, [r7, #12]
 1686 0108 02EA0303 		and	r3, r2, r3
 1687 010c FB60     		str	r3, [r7, #12]
 977:Libraries/STM32F10x_StdPeriph_Driver/src/stm32f10x_adc.c ****   /* Calculate the mask to set: ((Rank-1)+(4-JL-1)) */
 978:Libraries/STM32F10x_StdPeriph_Driver/src/stm32f10x_adc.c ****   tmpreg2 = (uint32_t)ADC_Channel << (5 * (uint8_t)((Rank + 3) - (tmpreg3 + 1)));
 1688              		.loc 1 978 0
 1689 010e F978     		ldrb	r1, [r7, #3]	@ zero_extendqisi2
 1690 0110 7B69     		ldr	r3, [r7, #20]
 1691 0112 DBB2     		uxtb	r3, r3
 1692 0114 6FEA0303 		mvn	r3, r3
 1693 0118 DAB2     		uxtb	r2, r3
 1694 011a BB78     		ldrb	r3, [r7, #2]
 1695 011c 1344     		add	r3, r2, r3
 1696 011e DBB2     		uxtb	r3, r3
 1697 0120 03F10303 		add	r3, r3, #3
 1698 0124 DBB2     		uxtb	r3, r3
 1699 0126 1A46     		mov	r2, r3
 1700 0128 1346     		mov	r3, r2
 1701 012a 4FEA8303 		lsl	r3, r3, #2
 1702 012e 1344     		add	r3, r3, r2
 1703 0130 01FA03F3 		lsl	r3, r1, r3
 1704 0134 3B61     		str	r3, [r7, #16]
 979:Libraries/STM32F10x_StdPeriph_Driver/src/stm32f10x_adc.c ****   /* Set the JSQx bits for the selected rank */
 980:Libraries/STM32F10x_StdPeriph_Driver/src/stm32f10x_adc.c ****   tmpreg1 |= tmpreg2;
 1705              		.loc 1 980 0
 1706 0136 FA68     		ldr	r2, [r7, #12]
 1707 0138 3B69     		ldr	r3, [r7, #16]
 1708 013a 42EA0303 		orr	r3, r2, r3
 1709 013e FB60     		str	r3, [r7, #12]
 981:Libraries/STM32F10x_StdPeriph_Driver/src/stm32f10x_adc.c ****   /* Store the new register value */
 982:Libraries/STM32F10x_StdPeriph_Driver/src/stm32f10x_adc.c ****   ADCx->JSQR = tmpreg1;
 1710              		.loc 1 982 0
 1711 0140 7B68     		ldr	r3, [r7, #4]
 1712 0142 FA68     		ldr	r2, [r7, #12]
 1713 0144 9A63     		str	r2, [r3, #56]
 983:Libraries/STM32F10x_StdPeriph_Driver/src/stm32f10x_adc.c **** }
 1714              		.loc 1 983 0
 1715 0146 07F11C07 		add	r7, r7, #28
 1716 014a BD46     		mov	sp, r7
 1717 014c 80BC     		pop	{r7}
 1718 014e 7047     		bx	lr
 1719              		.cfi_endproc
 1720              	.LFE53:
 1722              		.section	.text.ADC_InjectedSequencerLengthConfig,"ax",%progbits
 1723              		.align	2
 1724              		.global	ADC_InjectedSequencerLengthConfig
 1725              		.thumb
 1726              		.thumb_func
 1728              	ADC_InjectedSequencerLengthConfig:
 1729              	.LFB54:
 984:Libraries/STM32F10x_StdPeriph_Driver/src/stm32f10x_adc.c **** 
 985:Libraries/STM32F10x_StdPeriph_Driver/src/stm32f10x_adc.c **** /**
 986:Libraries/STM32F10x_StdPeriph_Driver/src/stm32f10x_adc.c ****   * @brief  Configures the sequencer length for injected channels
 987:Libraries/STM32F10x_StdPeriph_Driver/src/stm32f10x_adc.c ****   * @param  ADCx: where x can be 1, 2 or 3 to select the ADC peripheral.
 988:Libraries/STM32F10x_StdPeriph_Driver/src/stm32f10x_adc.c ****   * @param  Length: The sequencer length. 
 989:Libraries/STM32F10x_StdPeriph_Driver/src/stm32f10x_adc.c ****   *   This parameter must be a number between 1 to 4.
 990:Libraries/STM32F10x_StdPeriph_Driver/src/stm32f10x_adc.c ****   * @retval None
 991:Libraries/STM32F10x_StdPeriph_Driver/src/stm32f10x_adc.c ****   */
 992:Libraries/STM32F10x_StdPeriph_Driver/src/stm32f10x_adc.c **** void ADC_InjectedSequencerLengthConfig(ADC_TypeDef* ADCx, uint8_t Length)
 993:Libraries/STM32F10x_StdPeriph_Driver/src/stm32f10x_adc.c **** {
 1730              		.loc 1 993 0
 1731              		.cfi_startproc
 1732              		@ args = 0, pretend = 0, frame = 16
 1733              		@ frame_needed = 1, uses_anonymous_args = 0
 1734              		@ link register save eliminated.
 1735 0000 80B4     		push	{r7}
 1736              	.LCFI74:
 1737              		.cfi_def_cfa_offset 4
 1738 0002 85B0     		sub	sp, sp, #20
 1739              	.LCFI75:
 1740              		.cfi_def_cfa_offset 24
 1741 0004 00AF     		add	r7, sp, #0
 1742              		.cfi_offset 7, -4
 1743              	.LCFI76:
 1744              		.cfi_def_cfa_register 7
 1745 0006 7860     		str	r0, [r7, #4]
 1746 0008 0B46     		mov	r3, r1
 1747 000a FB70     		strb	r3, [r7, #3]
 994:Libraries/STM32F10x_StdPeriph_Driver/src/stm32f10x_adc.c ****   uint32_t tmpreg1 = 0;
 1748              		.loc 1 994 0
 1749 000c 4FF00003 		mov	r3, #0
 1750 0010 BB60     		str	r3, [r7, #8]
 995:Libraries/STM32F10x_StdPeriph_Driver/src/stm32f10x_adc.c ****   uint32_t tmpreg2 = 0;
 1751              		.loc 1 995 0
 1752 0012 4FF00003 		mov	r3, #0
 1753 0016 FB60     		str	r3, [r7, #12]
 996:Libraries/STM32F10x_StdPeriph_Driver/src/stm32f10x_adc.c ****   /* Check the parameters */
 997:Libraries/STM32F10x_StdPeriph_Driver/src/stm32f10x_adc.c ****   assert_param(IS_ADC_ALL_PERIPH(ADCx));
 998:Libraries/STM32F10x_StdPeriph_Driver/src/stm32f10x_adc.c ****   assert_param(IS_ADC_INJECTED_LENGTH(Length));
 999:Libraries/STM32F10x_StdPeriph_Driver/src/stm32f10x_adc.c ****   
1000:Libraries/STM32F10x_StdPeriph_Driver/src/stm32f10x_adc.c ****   /* Get the old register value */
1001:Libraries/STM32F10x_StdPeriph_Driver/src/stm32f10x_adc.c ****   tmpreg1 = ADCx->JSQR;
 1754              		.loc 1 1001 0
 1755 0018 7B68     		ldr	r3, [r7, #4]
 1756 001a 9B6B     		ldr	r3, [r3, #56]
 1757 001c BB60     		str	r3, [r7, #8]
1002:Libraries/STM32F10x_StdPeriph_Driver/src/stm32f10x_adc.c ****   /* Clear the old injected sequnence lenght JL bits */
1003:Libraries/STM32F10x_StdPeriph_Driver/src/stm32f10x_adc.c ****   tmpreg1 &= JSQR_JL_Reset;
 1758              		.loc 1 1003 0
 1759 001e BB68     		ldr	r3, [r7, #8]
 1760 0020 23F44013 		bic	r3, r3, #3145728
 1761 0024 BB60     		str	r3, [r7, #8]
1004:Libraries/STM32F10x_StdPeriph_Driver/src/stm32f10x_adc.c ****   /* Set the injected sequnence lenght JL bits */
1005:Libraries/STM32F10x_StdPeriph_Driver/src/stm32f10x_adc.c ****   tmpreg2 = Length - 1; 
 1762              		.loc 1 1005 0
 1763 0026 FB78     		ldrb	r3, [r7, #3]	@ zero_extendqisi2
 1764 0028 03F1FF33 		add	r3, r3, #-1
 1765 002c FB60     		str	r3, [r7, #12]
1006:Libraries/STM32F10x_StdPeriph_Driver/src/stm32f10x_adc.c ****   tmpreg1 |= tmpreg2 << 20;
 1766              		.loc 1 1006 0
 1767 002e FB68     		ldr	r3, [r7, #12]
 1768 0030 4FEA0353 		lsl	r3, r3, #20
 1769 0034 BA68     		ldr	r2, [r7, #8]
 1770 0036 42EA0303 		orr	r3, r2, r3
 1771 003a BB60     		str	r3, [r7, #8]
1007:Libraries/STM32F10x_StdPeriph_Driver/src/stm32f10x_adc.c ****   /* Store the new register value */
1008:Libraries/STM32F10x_StdPeriph_Driver/src/stm32f10x_adc.c ****   ADCx->JSQR = tmpreg1;
 1772              		.loc 1 1008 0
 1773 003c 7B68     		ldr	r3, [r7, #4]
 1774 003e BA68     		ldr	r2, [r7, #8]
 1775 0040 9A63     		str	r2, [r3, #56]
1009:Libraries/STM32F10x_StdPeriph_Driver/src/stm32f10x_adc.c **** }
 1776              		.loc 1 1009 0
 1777 0042 07F11407 		add	r7, r7, #20
 1778 0046 BD46     		mov	sp, r7
 1779 0048 80BC     		pop	{r7}
 1780 004a 7047     		bx	lr
 1781              		.cfi_endproc
 1782              	.LFE54:
 1784              		.section	.text.ADC_SetInjectedOffset,"ax",%progbits
 1785              		.align	2
 1786              		.global	ADC_SetInjectedOffset
 1787              		.thumb
 1788              		.thumb_func
 1790              	ADC_SetInjectedOffset:
 1791              	.LFB55:
1010:Libraries/STM32F10x_StdPeriph_Driver/src/stm32f10x_adc.c **** 
1011:Libraries/STM32F10x_StdPeriph_Driver/src/stm32f10x_adc.c **** /**
1012:Libraries/STM32F10x_StdPeriph_Driver/src/stm32f10x_adc.c ****   * @brief  Set the injected channels conversion value offset
1013:Libraries/STM32F10x_StdPeriph_Driver/src/stm32f10x_adc.c ****   * @param  ADCx: where x can be 1, 2 or 3 to select the ADC peripheral.
1014:Libraries/STM32F10x_StdPeriph_Driver/src/stm32f10x_adc.c ****   * @param  ADC_InjectedChannel: the ADC injected channel to set its offset. 
1015:Libraries/STM32F10x_StdPeriph_Driver/src/stm32f10x_adc.c ****   *   This parameter can be one of the following values:
1016:Libraries/STM32F10x_StdPeriph_Driver/src/stm32f10x_adc.c ****   *     @arg ADC_InjectedChannel_1: Injected Channel1 selected
1017:Libraries/STM32F10x_StdPeriph_Driver/src/stm32f10x_adc.c ****   *     @arg ADC_InjectedChannel_2: Injected Channel2 selected
1018:Libraries/STM32F10x_StdPeriph_Driver/src/stm32f10x_adc.c ****   *     @arg ADC_InjectedChannel_3: Injected Channel3 selected
1019:Libraries/STM32F10x_StdPeriph_Driver/src/stm32f10x_adc.c ****   *     @arg ADC_InjectedChannel_4: Injected Channel4 selected
1020:Libraries/STM32F10x_StdPeriph_Driver/src/stm32f10x_adc.c ****   * @param  Offset: the offset value for the selected ADC injected channel
1021:Libraries/STM32F10x_StdPeriph_Driver/src/stm32f10x_adc.c ****   *   This parameter must be a 12bit value.
1022:Libraries/STM32F10x_StdPeriph_Driver/src/stm32f10x_adc.c ****   * @retval None
1023:Libraries/STM32F10x_StdPeriph_Driver/src/stm32f10x_adc.c ****   */
1024:Libraries/STM32F10x_StdPeriph_Driver/src/stm32f10x_adc.c **** void ADC_SetInjectedOffset(ADC_TypeDef* ADCx, uint8_t ADC_InjectedChannel, uint16_t Offset)
1025:Libraries/STM32F10x_StdPeriph_Driver/src/stm32f10x_adc.c **** {
 1792              		.loc 1 1025 0
 1793              		.cfi_startproc
 1794              		@ args = 0, pretend = 0, frame = 16
 1795              		@ frame_needed = 1, uses_anonymous_args = 0
 1796              		@ link register save eliminated.
 1797 0000 80B4     		push	{r7}
 1798              	.LCFI77:
 1799              		.cfi_def_cfa_offset 4
 1800 0002 85B0     		sub	sp, sp, #20
 1801              	.LCFI78:
 1802              		.cfi_def_cfa_offset 24
 1803 0004 00AF     		add	r7, sp, #0
 1804              		.cfi_offset 7, -4
 1805              	.LCFI79:
 1806              		.cfi_def_cfa_register 7
 1807 0006 7860     		str	r0, [r7, #4]
 1808 0008 1346     		mov	r3, r2
 1809 000a 0A46     		mov	r2, r1
 1810 000c FA70     		strb	r2, [r7, #3]
 1811 000e 3B80     		strh	r3, [r7, #0]	@ movhi
1026:Libraries/STM32F10x_StdPeriph_Driver/src/stm32f10x_adc.c ****   __IO uint32_t tmp = 0;
 1812              		.loc 1 1026 0
 1813 0010 4FF00003 		mov	r3, #0
 1814 0014 FB60     		str	r3, [r7, #12]
1027:Libraries/STM32F10x_StdPeriph_Driver/src/stm32f10x_adc.c ****   
1028:Libraries/STM32F10x_StdPeriph_Driver/src/stm32f10x_adc.c ****   /* Check the parameters */
1029:Libraries/STM32F10x_StdPeriph_Driver/src/stm32f10x_adc.c ****   assert_param(IS_ADC_ALL_PERIPH(ADCx));
1030:Libraries/STM32F10x_StdPeriph_Driver/src/stm32f10x_adc.c ****   assert_param(IS_ADC_INJECTED_CHANNEL(ADC_InjectedChannel));
1031:Libraries/STM32F10x_StdPeriph_Driver/src/stm32f10x_adc.c ****   assert_param(IS_ADC_OFFSET(Offset));  
1032:Libraries/STM32F10x_StdPeriph_Driver/src/stm32f10x_adc.c ****   
1033:Libraries/STM32F10x_StdPeriph_Driver/src/stm32f10x_adc.c ****   tmp = (uint32_t)ADCx;
 1815              		.loc 1 1033 0
 1816 0016 7B68     		ldr	r3, [r7, #4]
 1817 0018 FB60     		str	r3, [r7, #12]
1034:Libraries/STM32F10x_StdPeriph_Driver/src/stm32f10x_adc.c ****   tmp += ADC_InjectedChannel;
 1818              		.loc 1 1034 0
 1819 001a FA78     		ldrb	r2, [r7, #3]	@ zero_extendqisi2
 1820 001c FB68     		ldr	r3, [r7, #12]
 1821 001e 1344     		add	r3, r2, r3
 1822 0020 FB60     		str	r3, [r7, #12]
1035:Libraries/STM32F10x_StdPeriph_Driver/src/stm32f10x_adc.c ****   
1036:Libraries/STM32F10x_StdPeriph_Driver/src/stm32f10x_adc.c ****   /* Set the selected injected channel data offset */
1037:Libraries/STM32F10x_StdPeriph_Driver/src/stm32f10x_adc.c ****   *(__IO uint32_t *) tmp = (uint32_t)Offset;
 1823              		.loc 1 1037 0
 1824 0022 FB68     		ldr	r3, [r7, #12]
 1825 0024 3A88     		ldrh	r2, [r7, #0]
 1826 0026 1A60     		str	r2, [r3, #0]
1038:Libraries/STM32F10x_StdPeriph_Driver/src/stm32f10x_adc.c **** }
 1827              		.loc 1 1038 0
 1828 0028 07F11407 		add	r7, r7, #20
 1829 002c BD46     		mov	sp, r7
 1830 002e 80BC     		pop	{r7}
 1831 0030 7047     		bx	lr
 1832              		.cfi_endproc
 1833              	.LFE55:
 1835 0032 00BF     		.section	.text.ADC_GetInjectedConversionValue,"ax",%progbits
 1836              		.align	2
 1837              		.global	ADC_GetInjectedConversionValue
 1838              		.thumb
 1839              		.thumb_func
 1841              	ADC_GetInjectedConversionValue:
 1842              	.LFB56:
1039:Libraries/STM32F10x_StdPeriph_Driver/src/stm32f10x_adc.c **** 
1040:Libraries/STM32F10x_StdPeriph_Driver/src/stm32f10x_adc.c **** /**
1041:Libraries/STM32F10x_StdPeriph_Driver/src/stm32f10x_adc.c ****   * @brief  Returns the ADC injected channel conversion result
1042:Libraries/STM32F10x_StdPeriph_Driver/src/stm32f10x_adc.c ****   * @param  ADCx: where x can be 1, 2 or 3 to select the ADC peripheral.
1043:Libraries/STM32F10x_StdPeriph_Driver/src/stm32f10x_adc.c ****   * @param  ADC_InjectedChannel: the converted ADC injected channel.
1044:Libraries/STM32F10x_StdPeriph_Driver/src/stm32f10x_adc.c ****   *   This parameter can be one of the following values:
1045:Libraries/STM32F10x_StdPeriph_Driver/src/stm32f10x_adc.c ****   *     @arg ADC_InjectedChannel_1: Injected Channel1 selected
1046:Libraries/STM32F10x_StdPeriph_Driver/src/stm32f10x_adc.c ****   *     @arg ADC_InjectedChannel_2: Injected Channel2 selected
1047:Libraries/STM32F10x_StdPeriph_Driver/src/stm32f10x_adc.c ****   *     @arg ADC_InjectedChannel_3: Injected Channel3 selected
1048:Libraries/STM32F10x_StdPeriph_Driver/src/stm32f10x_adc.c ****   *     @arg ADC_InjectedChannel_4: Injected Channel4 selected
1049:Libraries/STM32F10x_StdPeriph_Driver/src/stm32f10x_adc.c ****   * @retval The Data conversion value.
1050:Libraries/STM32F10x_StdPeriph_Driver/src/stm32f10x_adc.c ****   */
1051:Libraries/STM32F10x_StdPeriph_Driver/src/stm32f10x_adc.c **** uint16_t ADC_GetInjectedConversionValue(ADC_TypeDef* ADCx, uint8_t ADC_InjectedChannel)
1052:Libraries/STM32F10x_StdPeriph_Driver/src/stm32f10x_adc.c **** {
 1843              		.loc 1 1052 0
 1844              		.cfi_startproc
 1845              		@ args = 0, pretend = 0, frame = 16
 1846              		@ frame_needed = 1, uses_anonymous_args = 0
 1847              		@ link register save eliminated.
 1848 0000 80B4     		push	{r7}
 1849              	.LCFI80:
 1850              		.cfi_def_cfa_offset 4
 1851 0002 85B0     		sub	sp, sp, #20
 1852              	.LCFI81:
 1853              		.cfi_def_cfa_offset 24
 1854 0004 00AF     		add	r7, sp, #0
 1855              		.cfi_offset 7, -4
 1856              	.LCFI82:
 1857              		.cfi_def_cfa_register 7
 1858 0006 7860     		str	r0, [r7, #4]
 1859 0008 0B46     		mov	r3, r1
 1860 000a FB70     		strb	r3, [r7, #3]
1053:Libraries/STM32F10x_StdPeriph_Driver/src/stm32f10x_adc.c ****   __IO uint32_t tmp = 0;
 1861              		.loc 1 1053 0
 1862 000c 4FF00003 		mov	r3, #0
 1863 0010 FB60     		str	r3, [r7, #12]
1054:Libraries/STM32F10x_StdPeriph_Driver/src/stm32f10x_adc.c ****   
1055:Libraries/STM32F10x_StdPeriph_Driver/src/stm32f10x_adc.c ****   /* Check the parameters */
1056:Libraries/STM32F10x_StdPeriph_Driver/src/stm32f10x_adc.c ****   assert_param(IS_ADC_ALL_PERIPH(ADCx));
1057:Libraries/STM32F10x_StdPeriph_Driver/src/stm32f10x_adc.c ****   assert_param(IS_ADC_INJECTED_CHANNEL(ADC_InjectedChannel));
1058:Libraries/STM32F10x_StdPeriph_Driver/src/stm32f10x_adc.c **** 
1059:Libraries/STM32F10x_StdPeriph_Driver/src/stm32f10x_adc.c ****   tmp = (uint32_t)ADCx;
 1864              		.loc 1 1059 0
 1865 0012 7B68     		ldr	r3, [r7, #4]
 1866 0014 FB60     		str	r3, [r7, #12]
1060:Libraries/STM32F10x_StdPeriph_Driver/src/stm32f10x_adc.c ****   tmp += ADC_InjectedChannel + JDR_Offset;
 1867              		.loc 1 1060 0
 1868 0016 FA78     		ldrb	r2, [r7, #3]	@ zero_extendqisi2
 1869 0018 FB68     		ldr	r3, [r7, #12]
 1870 001a 1344     		add	r3, r2, r3
 1871 001c 03F12803 		add	r3, r3, #40
 1872 0020 FB60     		str	r3, [r7, #12]
1061:Libraries/STM32F10x_StdPeriph_Driver/src/stm32f10x_adc.c ****   
1062:Libraries/STM32F10x_StdPeriph_Driver/src/stm32f10x_adc.c ****   /* Returns the selected injected channel conversion data value */
1063:Libraries/STM32F10x_StdPeriph_Driver/src/stm32f10x_adc.c ****   return (uint16_t) (*(__IO uint32_t*)  tmp);   
 1873              		.loc 1 1063 0
 1874 0022 FB68     		ldr	r3, [r7, #12]
 1875 0024 1B68     		ldr	r3, [r3, #0]
 1876 0026 9BB2     		uxth	r3, r3
1064:Libraries/STM32F10x_StdPeriph_Driver/src/stm32f10x_adc.c **** }
 1877              		.loc 1 1064 0
 1878 0028 1846     		mov	r0, r3
 1879 002a 07F11407 		add	r7, r7, #20
 1880 002e BD46     		mov	sp, r7
 1881 0030 80BC     		pop	{r7}
 1882 0032 7047     		bx	lr
 1883              		.cfi_endproc
 1884              	.LFE56:
 1886              		.section	.text.ADC_AnalogWatchdogCmd,"ax",%progbits
 1887              		.align	2
 1888              		.global	ADC_AnalogWatchdogCmd
 1889              		.thumb
 1890              		.thumb_func
 1892              	ADC_AnalogWatchdogCmd:
 1893              	.LFB57:
1065:Libraries/STM32F10x_StdPeriph_Driver/src/stm32f10x_adc.c **** 
1066:Libraries/STM32F10x_StdPeriph_Driver/src/stm32f10x_adc.c **** /**
1067:Libraries/STM32F10x_StdPeriph_Driver/src/stm32f10x_adc.c ****   * @brief  Enables or disables the analog watchdog on single/all regular
1068:Libraries/STM32F10x_StdPeriph_Driver/src/stm32f10x_adc.c ****   *   or injected channels
1069:Libraries/STM32F10x_StdPeriph_Driver/src/stm32f10x_adc.c ****   * @param  ADCx: where x can be 1, 2 or 3 to select the ADC peripheral.
1070:Libraries/STM32F10x_StdPeriph_Driver/src/stm32f10x_adc.c ****   * @param  ADC_AnalogWatchdog: the ADC analog watchdog configuration.
1071:Libraries/STM32F10x_StdPeriph_Driver/src/stm32f10x_adc.c ****   *   This parameter can be one of the following values:
1072:Libraries/STM32F10x_StdPeriph_Driver/src/stm32f10x_adc.c ****   *     @arg ADC_AnalogWatchdog_SingleRegEnable: Analog watchdog on a single regular channel
1073:Libraries/STM32F10x_StdPeriph_Driver/src/stm32f10x_adc.c ****   *     @arg ADC_AnalogWatchdog_SingleInjecEnable: Analog watchdog on a single injected channel
1074:Libraries/STM32F10x_StdPeriph_Driver/src/stm32f10x_adc.c ****   *     @arg ADC_AnalogWatchdog_SingleRegOrInjecEnable: Analog watchdog on a single regular or inje
1075:Libraries/STM32F10x_StdPeriph_Driver/src/stm32f10x_adc.c ****   *     @arg ADC_AnalogWatchdog_AllRegEnable: Analog watchdog on  all regular channel
1076:Libraries/STM32F10x_StdPeriph_Driver/src/stm32f10x_adc.c ****   *     @arg ADC_AnalogWatchdog_AllInjecEnable: Analog watchdog on  all injected channel
1077:Libraries/STM32F10x_StdPeriph_Driver/src/stm32f10x_adc.c ****   *     @arg ADC_AnalogWatchdog_AllRegAllInjecEnable: Analog watchdog on all regular and injected c
1078:Libraries/STM32F10x_StdPeriph_Driver/src/stm32f10x_adc.c ****   *     @arg ADC_AnalogWatchdog_None: No channel guarded by the analog watchdog
1079:Libraries/STM32F10x_StdPeriph_Driver/src/stm32f10x_adc.c ****   * @retval None	  
1080:Libraries/STM32F10x_StdPeriph_Driver/src/stm32f10x_adc.c ****   */
1081:Libraries/STM32F10x_StdPeriph_Driver/src/stm32f10x_adc.c **** void ADC_AnalogWatchdogCmd(ADC_TypeDef* ADCx, uint32_t ADC_AnalogWatchdog)
1082:Libraries/STM32F10x_StdPeriph_Driver/src/stm32f10x_adc.c **** {
 1894              		.loc 1 1082 0
 1895              		.cfi_startproc
 1896              		@ args = 0, pretend = 0, frame = 16
 1897              		@ frame_needed = 1, uses_anonymous_args = 0
 1898              		@ link register save eliminated.
 1899 0000 80B4     		push	{r7}
 1900              	.LCFI83:
 1901              		.cfi_def_cfa_offset 4
 1902 0002 85B0     		sub	sp, sp, #20
 1903              	.LCFI84:
 1904              		.cfi_def_cfa_offset 24
 1905 0004 00AF     		add	r7, sp, #0
 1906              		.cfi_offset 7, -4
 1907              	.LCFI85:
 1908              		.cfi_def_cfa_register 7
 1909 0006 7860     		str	r0, [r7, #4]
 1910 0008 3960     		str	r1, [r7, #0]
1083:Libraries/STM32F10x_StdPeriph_Driver/src/stm32f10x_adc.c ****   uint32_t tmpreg = 0;
 1911              		.loc 1 1083 0
 1912 000a 4FF00003 		mov	r3, #0
 1913 000e FB60     		str	r3, [r7, #12]
1084:Libraries/STM32F10x_StdPeriph_Driver/src/stm32f10x_adc.c ****   /* Check the parameters */
1085:Libraries/STM32F10x_StdPeriph_Driver/src/stm32f10x_adc.c ****   assert_param(IS_ADC_ALL_PERIPH(ADCx));
1086:Libraries/STM32F10x_StdPeriph_Driver/src/stm32f10x_adc.c ****   assert_param(IS_ADC_ANALOG_WATCHDOG(ADC_AnalogWatchdog));
1087:Libraries/STM32F10x_StdPeriph_Driver/src/stm32f10x_adc.c ****   /* Get the old register value */
1088:Libraries/STM32F10x_StdPeriph_Driver/src/stm32f10x_adc.c ****   tmpreg = ADCx->CR1;
 1914              		.loc 1 1088 0
 1915 0010 7B68     		ldr	r3, [r7, #4]
 1916 0012 5B68     		ldr	r3, [r3, #4]
 1917 0014 FB60     		str	r3, [r7, #12]
1089:Libraries/STM32F10x_StdPeriph_Driver/src/stm32f10x_adc.c ****   /* Clear AWDEN, AWDENJ and AWDSGL bits */
1090:Libraries/STM32F10x_StdPeriph_Driver/src/stm32f10x_adc.c ****   tmpreg &= CR1_AWDMode_Reset;
 1918              		.loc 1 1090 0
 1919 0016 FB68     		ldr	r3, [r7, #12]
 1920 0018 23F44003 		bic	r3, r3, #12582912
 1921 001c 23F40073 		bic	r3, r3, #512
 1922 0020 FB60     		str	r3, [r7, #12]
1091:Libraries/STM32F10x_StdPeriph_Driver/src/stm32f10x_adc.c ****   /* Set the analog watchdog enable mode */
1092:Libraries/STM32F10x_StdPeriph_Driver/src/stm32f10x_adc.c ****   tmpreg |= ADC_AnalogWatchdog;
 1923              		.loc 1 1092 0
 1924 0022 FA68     		ldr	r2, [r7, #12]
 1925 0024 3B68     		ldr	r3, [r7, #0]
 1926 0026 42EA0303 		orr	r3, r2, r3
 1927 002a FB60     		str	r3, [r7, #12]
1093:Libraries/STM32F10x_StdPeriph_Driver/src/stm32f10x_adc.c ****   /* Store the new register value */
1094:Libraries/STM32F10x_StdPeriph_Driver/src/stm32f10x_adc.c ****   ADCx->CR1 = tmpreg;
 1928              		.loc 1 1094 0
 1929 002c 7B68     		ldr	r3, [r7, #4]
 1930 002e FA68     		ldr	r2, [r7, #12]
 1931 0030 5A60     		str	r2, [r3, #4]
1095:Libraries/STM32F10x_StdPeriph_Driver/src/stm32f10x_adc.c **** }
 1932              		.loc 1 1095 0
 1933 0032 07F11407 		add	r7, r7, #20
 1934 0036 BD46     		mov	sp, r7
 1935 0038 80BC     		pop	{r7}
 1936 003a 7047     		bx	lr
 1937              		.cfi_endproc
 1938              	.LFE57:
 1940              		.section	.text.ADC_AnalogWatchdogThresholdsConfig,"ax",%progbits
 1941              		.align	2
 1942              		.global	ADC_AnalogWatchdogThresholdsConfig
 1943              		.thumb
 1944              		.thumb_func
 1946              	ADC_AnalogWatchdogThresholdsConfig:
 1947              	.LFB58:
1096:Libraries/STM32F10x_StdPeriph_Driver/src/stm32f10x_adc.c **** 
1097:Libraries/STM32F10x_StdPeriph_Driver/src/stm32f10x_adc.c **** /**
1098:Libraries/STM32F10x_StdPeriph_Driver/src/stm32f10x_adc.c ****   * @brief  Configures the high and low thresholds of the analog watchdog.
1099:Libraries/STM32F10x_StdPeriph_Driver/src/stm32f10x_adc.c ****   * @param  ADCx: where x can be 1, 2 or 3 to select the ADC peripheral.
1100:Libraries/STM32F10x_StdPeriph_Driver/src/stm32f10x_adc.c ****   * @param  HighThreshold: the ADC analog watchdog High threshold value.
1101:Libraries/STM32F10x_StdPeriph_Driver/src/stm32f10x_adc.c ****   *   This parameter must be a 12bit value.
1102:Libraries/STM32F10x_StdPeriph_Driver/src/stm32f10x_adc.c ****   * @param  LowThreshold: the ADC analog watchdog Low threshold value.
1103:Libraries/STM32F10x_StdPeriph_Driver/src/stm32f10x_adc.c ****   *   This parameter must be a 12bit value.
1104:Libraries/STM32F10x_StdPeriph_Driver/src/stm32f10x_adc.c ****   * @retval None
1105:Libraries/STM32F10x_StdPeriph_Driver/src/stm32f10x_adc.c ****   */
1106:Libraries/STM32F10x_StdPeriph_Driver/src/stm32f10x_adc.c **** void ADC_AnalogWatchdogThresholdsConfig(ADC_TypeDef* ADCx, uint16_t HighThreshold,
1107:Libraries/STM32F10x_StdPeriph_Driver/src/stm32f10x_adc.c ****                                         uint16_t LowThreshold)
1108:Libraries/STM32F10x_StdPeriph_Driver/src/stm32f10x_adc.c **** {
 1948              		.loc 1 1108 0
 1949              		.cfi_startproc
 1950              		@ args = 0, pretend = 0, frame = 8
 1951              		@ frame_needed = 1, uses_anonymous_args = 0
 1952              		@ link register save eliminated.
 1953 0000 80B4     		push	{r7}
 1954              	.LCFI86:
 1955              		.cfi_def_cfa_offset 4
 1956 0002 83B0     		sub	sp, sp, #12
 1957              	.LCFI87:
 1958              		.cfi_def_cfa_offset 16
 1959 0004 00AF     		add	r7, sp, #0
 1960              		.cfi_offset 7, -4
 1961              	.LCFI88:
 1962              		.cfi_def_cfa_register 7
 1963 0006 7860     		str	r0, [r7, #4]
 1964 0008 1346     		mov	r3, r2
 1965 000a 0A46     		mov	r2, r1	@ movhi
 1966 000c 7A80     		strh	r2, [r7, #2]	@ movhi
 1967 000e 3B80     		strh	r3, [r7, #0]	@ movhi
1109:Libraries/STM32F10x_StdPeriph_Driver/src/stm32f10x_adc.c ****   /* Check the parameters */
1110:Libraries/STM32F10x_StdPeriph_Driver/src/stm32f10x_adc.c ****   assert_param(IS_ADC_ALL_PERIPH(ADCx));
1111:Libraries/STM32F10x_StdPeriph_Driver/src/stm32f10x_adc.c ****   assert_param(IS_ADC_THRESHOLD(HighThreshold));
1112:Libraries/STM32F10x_StdPeriph_Driver/src/stm32f10x_adc.c ****   assert_param(IS_ADC_THRESHOLD(LowThreshold));
1113:Libraries/STM32F10x_StdPeriph_Driver/src/stm32f10x_adc.c ****   /* Set the ADCx high threshold */
1114:Libraries/STM32F10x_StdPeriph_Driver/src/stm32f10x_adc.c ****   ADCx->HTR = HighThreshold;
 1968              		.loc 1 1114 0
 1969 0010 7A88     		ldrh	r2, [r7, #2]
 1970 0012 7B68     		ldr	r3, [r7, #4]
 1971 0014 5A62     		str	r2, [r3, #36]
1115:Libraries/STM32F10x_StdPeriph_Driver/src/stm32f10x_adc.c ****   /* Set the ADCx low threshold */
1116:Libraries/STM32F10x_StdPeriph_Driver/src/stm32f10x_adc.c ****   ADCx->LTR = LowThreshold;
 1972              		.loc 1 1116 0
 1973 0016 3A88     		ldrh	r2, [r7, #0]
 1974 0018 7B68     		ldr	r3, [r7, #4]
 1975 001a 9A62     		str	r2, [r3, #40]
1117:Libraries/STM32F10x_StdPeriph_Driver/src/stm32f10x_adc.c **** }
 1976              		.loc 1 1117 0
 1977 001c 07F10C07 		add	r7, r7, #12
 1978 0020 BD46     		mov	sp, r7
 1979 0022 80BC     		pop	{r7}
 1980 0024 7047     		bx	lr
 1981              		.cfi_endproc
 1982              	.LFE58:
 1984 0026 00BF     		.section	.text.ADC_AnalogWatchdogSingleChannelConfig,"ax",%progbits
 1985              		.align	2
 1986              		.global	ADC_AnalogWatchdogSingleChannelConfig
 1987              		.thumb
 1988              		.thumb_func
 1990              	ADC_AnalogWatchdogSingleChannelConfig:
 1991              	.LFB59:
1118:Libraries/STM32F10x_StdPeriph_Driver/src/stm32f10x_adc.c **** 
1119:Libraries/STM32F10x_StdPeriph_Driver/src/stm32f10x_adc.c **** /**
1120:Libraries/STM32F10x_StdPeriph_Driver/src/stm32f10x_adc.c ****   * @brief  Configures the analog watchdog guarded single channel
1121:Libraries/STM32F10x_StdPeriph_Driver/src/stm32f10x_adc.c ****   * @param  ADCx: where x can be 1, 2 or 3 to select the ADC peripheral.
1122:Libraries/STM32F10x_StdPeriph_Driver/src/stm32f10x_adc.c ****   * @param  ADC_Channel: the ADC channel to configure for the analog watchdog. 
1123:Libraries/STM32F10x_StdPeriph_Driver/src/stm32f10x_adc.c ****   *   This parameter can be one of the following values:
1124:Libraries/STM32F10x_StdPeriph_Driver/src/stm32f10x_adc.c ****   *     @arg ADC_Channel_0: ADC Channel0 selected
1125:Libraries/STM32F10x_StdPeriph_Driver/src/stm32f10x_adc.c ****   *     @arg ADC_Channel_1: ADC Channel1 selected
1126:Libraries/STM32F10x_StdPeriph_Driver/src/stm32f10x_adc.c ****   *     @arg ADC_Channel_2: ADC Channel2 selected
1127:Libraries/STM32F10x_StdPeriph_Driver/src/stm32f10x_adc.c ****   *     @arg ADC_Channel_3: ADC Channel3 selected
1128:Libraries/STM32F10x_StdPeriph_Driver/src/stm32f10x_adc.c ****   *     @arg ADC_Channel_4: ADC Channel4 selected
1129:Libraries/STM32F10x_StdPeriph_Driver/src/stm32f10x_adc.c ****   *     @arg ADC_Channel_5: ADC Channel5 selected
1130:Libraries/STM32F10x_StdPeriph_Driver/src/stm32f10x_adc.c ****   *     @arg ADC_Channel_6: ADC Channel6 selected
1131:Libraries/STM32F10x_StdPeriph_Driver/src/stm32f10x_adc.c ****   *     @arg ADC_Channel_7: ADC Channel7 selected
1132:Libraries/STM32F10x_StdPeriph_Driver/src/stm32f10x_adc.c ****   *     @arg ADC_Channel_8: ADC Channel8 selected
1133:Libraries/STM32F10x_StdPeriph_Driver/src/stm32f10x_adc.c ****   *     @arg ADC_Channel_9: ADC Channel9 selected
1134:Libraries/STM32F10x_StdPeriph_Driver/src/stm32f10x_adc.c ****   *     @arg ADC_Channel_10: ADC Channel10 selected
1135:Libraries/STM32F10x_StdPeriph_Driver/src/stm32f10x_adc.c ****   *     @arg ADC_Channel_11: ADC Channel11 selected
1136:Libraries/STM32F10x_StdPeriph_Driver/src/stm32f10x_adc.c ****   *     @arg ADC_Channel_12: ADC Channel12 selected
1137:Libraries/STM32F10x_StdPeriph_Driver/src/stm32f10x_adc.c ****   *     @arg ADC_Channel_13: ADC Channel13 selected
1138:Libraries/STM32F10x_StdPeriph_Driver/src/stm32f10x_adc.c ****   *     @arg ADC_Channel_14: ADC Channel14 selected
1139:Libraries/STM32F10x_StdPeriph_Driver/src/stm32f10x_adc.c ****   *     @arg ADC_Channel_15: ADC Channel15 selected
1140:Libraries/STM32F10x_StdPeriph_Driver/src/stm32f10x_adc.c ****   *     @arg ADC_Channel_16: ADC Channel16 selected
1141:Libraries/STM32F10x_StdPeriph_Driver/src/stm32f10x_adc.c ****   *     @arg ADC_Channel_17: ADC Channel17 selected
1142:Libraries/STM32F10x_StdPeriph_Driver/src/stm32f10x_adc.c ****   * @retval None
1143:Libraries/STM32F10x_StdPeriph_Driver/src/stm32f10x_adc.c ****   */
1144:Libraries/STM32F10x_StdPeriph_Driver/src/stm32f10x_adc.c **** void ADC_AnalogWatchdogSingleChannelConfig(ADC_TypeDef* ADCx, uint8_t ADC_Channel)
1145:Libraries/STM32F10x_StdPeriph_Driver/src/stm32f10x_adc.c **** {
 1992              		.loc 1 1145 0
 1993              		.cfi_startproc
 1994              		@ args = 0, pretend = 0, frame = 16
 1995              		@ frame_needed = 1, uses_anonymous_args = 0
 1996              		@ link register save eliminated.
 1997 0000 80B4     		push	{r7}
 1998              	.LCFI89:
 1999              		.cfi_def_cfa_offset 4
 2000 0002 85B0     		sub	sp, sp, #20
 2001              	.LCFI90:
 2002              		.cfi_def_cfa_offset 24
 2003 0004 00AF     		add	r7, sp, #0
 2004              		.cfi_offset 7, -4
 2005              	.LCFI91:
 2006              		.cfi_def_cfa_register 7
 2007 0006 7860     		str	r0, [r7, #4]
 2008 0008 0B46     		mov	r3, r1
 2009 000a FB70     		strb	r3, [r7, #3]
1146:Libraries/STM32F10x_StdPeriph_Driver/src/stm32f10x_adc.c ****   uint32_t tmpreg = 0;
 2010              		.loc 1 1146 0
 2011 000c 4FF00003 		mov	r3, #0
 2012 0010 FB60     		str	r3, [r7, #12]
1147:Libraries/STM32F10x_StdPeriph_Driver/src/stm32f10x_adc.c ****   /* Check the parameters */
1148:Libraries/STM32F10x_StdPeriph_Driver/src/stm32f10x_adc.c ****   assert_param(IS_ADC_ALL_PERIPH(ADCx));
1149:Libraries/STM32F10x_StdPeriph_Driver/src/stm32f10x_adc.c ****   assert_param(IS_ADC_CHANNEL(ADC_Channel));
1150:Libraries/STM32F10x_StdPeriph_Driver/src/stm32f10x_adc.c ****   /* Get the old register value */
1151:Libraries/STM32F10x_StdPeriph_Driver/src/stm32f10x_adc.c ****   tmpreg = ADCx->CR1;
 2013              		.loc 1 1151 0
 2014 0012 7B68     		ldr	r3, [r7, #4]
 2015 0014 5B68     		ldr	r3, [r3, #4]
 2016 0016 FB60     		str	r3, [r7, #12]
1152:Libraries/STM32F10x_StdPeriph_Driver/src/stm32f10x_adc.c ****   /* Clear the Analog watchdog channel select bits */
1153:Libraries/STM32F10x_StdPeriph_Driver/src/stm32f10x_adc.c ****   tmpreg &= CR1_AWDCH_Reset;
 2017              		.loc 1 1153 0
 2018 0018 FB68     		ldr	r3, [r7, #12]
 2019 001a 23F01F03 		bic	r3, r3, #31
 2020 001e FB60     		str	r3, [r7, #12]
1154:Libraries/STM32F10x_StdPeriph_Driver/src/stm32f10x_adc.c ****   /* Set the Analog watchdog channel */
1155:Libraries/STM32F10x_StdPeriph_Driver/src/stm32f10x_adc.c ****   tmpreg |= ADC_Channel;
 2021              		.loc 1 1155 0
 2022 0020 FB78     		ldrb	r3, [r7, #3]	@ zero_extendqisi2
 2023 0022 FA68     		ldr	r2, [r7, #12]
 2024 0024 42EA0303 		orr	r3, r2, r3
 2025 0028 FB60     		str	r3, [r7, #12]
1156:Libraries/STM32F10x_StdPeriph_Driver/src/stm32f10x_adc.c ****   /* Store the new register value */
1157:Libraries/STM32F10x_StdPeriph_Driver/src/stm32f10x_adc.c ****   ADCx->CR1 = tmpreg;
 2026              		.loc 1 1157 0
 2027 002a 7B68     		ldr	r3, [r7, #4]
 2028 002c FA68     		ldr	r2, [r7, #12]
 2029 002e 5A60     		str	r2, [r3, #4]
1158:Libraries/STM32F10x_StdPeriph_Driver/src/stm32f10x_adc.c **** }
 2030              		.loc 1 1158 0
 2031 0030 07F11407 		add	r7, r7, #20
 2032 0034 BD46     		mov	sp, r7
 2033 0036 80BC     		pop	{r7}
 2034 0038 7047     		bx	lr
 2035              		.cfi_endproc
 2036              	.LFE59:
 2038 003a 00BF     		.section	.text.ADC_TempSensorVrefintCmd,"ax",%progbits
 2039              		.align	2
 2040              		.global	ADC_TempSensorVrefintCmd
 2041              		.thumb
 2042              		.thumb_func
 2044              	ADC_TempSensorVrefintCmd:
 2045              	.LFB60:
1159:Libraries/STM32F10x_StdPeriph_Driver/src/stm32f10x_adc.c **** 
1160:Libraries/STM32F10x_StdPeriph_Driver/src/stm32f10x_adc.c **** /**
1161:Libraries/STM32F10x_StdPeriph_Driver/src/stm32f10x_adc.c ****   * @brief  Enables or disables the temperature sensor and Vrefint channel.
1162:Libraries/STM32F10x_StdPeriph_Driver/src/stm32f10x_adc.c ****   * @param  NewState: new state of the temperature sensor.
1163:Libraries/STM32F10x_StdPeriph_Driver/src/stm32f10x_adc.c ****   *   This parameter can be: ENABLE or DISABLE.
1164:Libraries/STM32F10x_StdPeriph_Driver/src/stm32f10x_adc.c ****   * @retval None
1165:Libraries/STM32F10x_StdPeriph_Driver/src/stm32f10x_adc.c ****   */
1166:Libraries/STM32F10x_StdPeriph_Driver/src/stm32f10x_adc.c **** void ADC_TempSensorVrefintCmd(FunctionalState NewState)
1167:Libraries/STM32F10x_StdPeriph_Driver/src/stm32f10x_adc.c **** {
 2046              		.loc 1 1167 0
 2047              		.cfi_startproc
 2048              		@ args = 0, pretend = 0, frame = 8
 2049              		@ frame_needed = 1, uses_anonymous_args = 0
 2050              		@ link register save eliminated.
 2051 0000 80B4     		push	{r7}
 2052              	.LCFI92:
 2053              		.cfi_def_cfa_offset 4
 2054 0002 83B0     		sub	sp, sp, #12
 2055              	.LCFI93:
 2056              		.cfi_def_cfa_offset 16
 2057 0004 00AF     		add	r7, sp, #0
 2058              		.cfi_offset 7, -4
 2059              	.LCFI94:
 2060              		.cfi_def_cfa_register 7
 2061 0006 0346     		mov	r3, r0
 2062 0008 FB71     		strb	r3, [r7, #7]
1168:Libraries/STM32F10x_StdPeriph_Driver/src/stm32f10x_adc.c ****   /* Check the parameters */
1169:Libraries/STM32F10x_StdPeriph_Driver/src/stm32f10x_adc.c ****   assert_param(IS_FUNCTIONAL_STATE(NewState));
1170:Libraries/STM32F10x_StdPeriph_Driver/src/stm32f10x_adc.c ****   if (NewState != DISABLE)
 2063              		.loc 1 1170 0
 2064 000a FB79     		ldrb	r3, [r7, #7]	@ zero_extendqisi2
 2065 000c 002B     		cmp	r3, #0
 2066 000e 0CD0     		beq	.L102
1171:Libraries/STM32F10x_StdPeriph_Driver/src/stm32f10x_adc.c ****   {
1172:Libraries/STM32F10x_StdPeriph_Driver/src/stm32f10x_adc.c ****     /* Enable the temperature sensor and Vrefint channel*/
1173:Libraries/STM32F10x_StdPeriph_Driver/src/stm32f10x_adc.c ****     ADC1->CR2 |= CR2_TSVREFE_Set;
 2067              		.loc 1 1173 0
 2068 0010 42F20043 		movw	r3, #:lower16:1073816576
 2069 0014 C4F20103 		movt	r3, #:upper16:1073816576
 2070 0018 42F20042 		movw	r2, #:lower16:1073816576
 2071 001c C4F20102 		movt	r2, #:upper16:1073816576
 2072 0020 9268     		ldr	r2, [r2, #8]
 2073 0022 42F40002 		orr	r2, r2, #8388608
 2074 0026 9A60     		str	r2, [r3, #8]
 2075 0028 0BE0     		b	.L104
 2076              	.L102:
1174:Libraries/STM32F10x_StdPeriph_Driver/src/stm32f10x_adc.c ****   }
1175:Libraries/STM32F10x_StdPeriph_Driver/src/stm32f10x_adc.c ****   else
1176:Libraries/STM32F10x_StdPeriph_Driver/src/stm32f10x_adc.c ****   {
1177:Libraries/STM32F10x_StdPeriph_Driver/src/stm32f10x_adc.c ****     /* Disable the temperature sensor and Vrefint channel*/
1178:Libraries/STM32F10x_StdPeriph_Driver/src/stm32f10x_adc.c ****     ADC1->CR2 &= CR2_TSVREFE_Reset;
 2077              		.loc 1 1178 0
 2078 002a 42F20043 		movw	r3, #:lower16:1073816576
 2079 002e C4F20103 		movt	r3, #:upper16:1073816576
 2080 0032 42F20042 		movw	r2, #:lower16:1073816576
 2081 0036 C4F20102 		movt	r2, #:upper16:1073816576
 2082 003a 9268     		ldr	r2, [r2, #8]
 2083 003c 22F40002 		bic	r2, r2, #8388608
 2084 0040 9A60     		str	r2, [r3, #8]
 2085              	.L104:
1179:Libraries/STM32F10x_StdPeriph_Driver/src/stm32f10x_adc.c ****   }
1180:Libraries/STM32F10x_StdPeriph_Driver/src/stm32f10x_adc.c **** }
 2086              		.loc 1 1180 0
 2087 0042 07F10C07 		add	r7, r7, #12
 2088 0046 BD46     		mov	sp, r7
 2089 0048 80BC     		pop	{r7}
 2090 004a 7047     		bx	lr
 2091              		.cfi_endproc
 2092              	.LFE60:
 2094              		.section	.text.ADC_GetFlagStatus,"ax",%progbits
 2095              		.align	2
 2096              		.global	ADC_GetFlagStatus
 2097              		.thumb
 2098              		.thumb_func
 2100              	ADC_GetFlagStatus:
 2101              	.LFB61:
1181:Libraries/STM32F10x_StdPeriph_Driver/src/stm32f10x_adc.c **** 
1182:Libraries/STM32F10x_StdPeriph_Driver/src/stm32f10x_adc.c **** /**
1183:Libraries/STM32F10x_StdPeriph_Driver/src/stm32f10x_adc.c ****   * @brief  Checks whether the specified ADC flag is set or not.
1184:Libraries/STM32F10x_StdPeriph_Driver/src/stm32f10x_adc.c ****   * @param  ADCx: where x can be 1, 2 or 3 to select the ADC peripheral.
1185:Libraries/STM32F10x_StdPeriph_Driver/src/stm32f10x_adc.c ****   * @param  ADC_FLAG: specifies the flag to check. 
1186:Libraries/STM32F10x_StdPeriph_Driver/src/stm32f10x_adc.c ****   *   This parameter can be one of the following values:
1187:Libraries/STM32F10x_StdPeriph_Driver/src/stm32f10x_adc.c ****   *     @arg ADC_FLAG_AWD: Analog watchdog flag
1188:Libraries/STM32F10x_StdPeriph_Driver/src/stm32f10x_adc.c ****   *     @arg ADC_FLAG_EOC: End of conversion flag
1189:Libraries/STM32F10x_StdPeriph_Driver/src/stm32f10x_adc.c ****   *     @arg ADC_FLAG_JEOC: End of injected group conversion flag
1190:Libraries/STM32F10x_StdPeriph_Driver/src/stm32f10x_adc.c ****   *     @arg ADC_FLAG_JSTRT: Start of injected group conversion flag
1191:Libraries/STM32F10x_StdPeriph_Driver/src/stm32f10x_adc.c ****   *     @arg ADC_FLAG_STRT: Start of regular group conversion flag
1192:Libraries/STM32F10x_StdPeriph_Driver/src/stm32f10x_adc.c ****   * @retval The new state of ADC_FLAG (SET or RESET).
1193:Libraries/STM32F10x_StdPeriph_Driver/src/stm32f10x_adc.c ****   */
1194:Libraries/STM32F10x_StdPeriph_Driver/src/stm32f10x_adc.c **** FlagStatus ADC_GetFlagStatus(ADC_TypeDef* ADCx, uint8_t ADC_FLAG)
1195:Libraries/STM32F10x_StdPeriph_Driver/src/stm32f10x_adc.c **** {
 2102              		.loc 1 1195 0
 2103              		.cfi_startproc
 2104              		@ args = 0, pretend = 0, frame = 16
 2105              		@ frame_needed = 1, uses_anonymous_args = 0
 2106              		@ link register save eliminated.
 2107 0000 80B4     		push	{r7}
 2108              	.LCFI95:
 2109              		.cfi_def_cfa_offset 4
 2110 0002 85B0     		sub	sp, sp, #20
 2111              	.LCFI96:
 2112              		.cfi_def_cfa_offset 24
 2113 0004 00AF     		add	r7, sp, #0
 2114              		.cfi_offset 7, -4
 2115              	.LCFI97:
 2116              		.cfi_def_cfa_register 7
 2117 0006 7860     		str	r0, [r7, #4]
 2118 0008 0B46     		mov	r3, r1
 2119 000a FB70     		strb	r3, [r7, #3]
1196:Libraries/STM32F10x_StdPeriph_Driver/src/stm32f10x_adc.c ****   FlagStatus bitstatus = RESET;
 2120              		.loc 1 1196 0
 2121 000c 4FF00003 		mov	r3, #0
 2122 0010 FB73     		strb	r3, [r7, #15]
1197:Libraries/STM32F10x_StdPeriph_Driver/src/stm32f10x_adc.c ****   /* Check the parameters */
1198:Libraries/STM32F10x_StdPeriph_Driver/src/stm32f10x_adc.c ****   assert_param(IS_ADC_ALL_PERIPH(ADCx));
1199:Libraries/STM32F10x_StdPeriph_Driver/src/stm32f10x_adc.c ****   assert_param(IS_ADC_GET_FLAG(ADC_FLAG));
1200:Libraries/STM32F10x_StdPeriph_Driver/src/stm32f10x_adc.c ****   /* Check the status of the specified ADC flag */
1201:Libraries/STM32F10x_StdPeriph_Driver/src/stm32f10x_adc.c ****   if ((ADCx->SR & ADC_FLAG) != (uint8_t)RESET)
 2123              		.loc 1 1201 0
 2124 0012 7B68     		ldr	r3, [r7, #4]
 2125 0014 1A68     		ldr	r2, [r3, #0]
 2126 0016 FB78     		ldrb	r3, [r7, #3]	@ zero_extendqisi2
 2127 0018 02EA0303 		and	r3, r2, r3
 2128 001c 002B     		cmp	r3, #0
 2129 001e 03D0     		beq	.L106
1202:Libraries/STM32F10x_StdPeriph_Driver/src/stm32f10x_adc.c ****   {
1203:Libraries/STM32F10x_StdPeriph_Driver/src/stm32f10x_adc.c ****     /* ADC_FLAG is set */
1204:Libraries/STM32F10x_StdPeriph_Driver/src/stm32f10x_adc.c ****     bitstatus = SET;
 2130              		.loc 1 1204 0
 2131 0020 4FF00103 		mov	r3, #1
 2132 0024 FB73     		strb	r3, [r7, #15]
 2133 0026 02E0     		b	.L107
 2134              	.L106:
1205:Libraries/STM32F10x_StdPeriph_Driver/src/stm32f10x_adc.c ****   }
1206:Libraries/STM32F10x_StdPeriph_Driver/src/stm32f10x_adc.c ****   else
1207:Libraries/STM32F10x_StdPeriph_Driver/src/stm32f10x_adc.c ****   {
1208:Libraries/STM32F10x_StdPeriph_Driver/src/stm32f10x_adc.c ****     /* ADC_FLAG is reset */
1209:Libraries/STM32F10x_StdPeriph_Driver/src/stm32f10x_adc.c ****     bitstatus = RESET;
 2135              		.loc 1 1209 0
 2136 0028 4FF00003 		mov	r3, #0
 2137 002c FB73     		strb	r3, [r7, #15]
 2138              	.L107:
1210:Libraries/STM32F10x_StdPeriph_Driver/src/stm32f10x_adc.c ****   }
1211:Libraries/STM32F10x_StdPeriph_Driver/src/stm32f10x_adc.c ****   /* Return the ADC_FLAG status */
1212:Libraries/STM32F10x_StdPeriph_Driver/src/stm32f10x_adc.c ****   return  bitstatus;
 2139              		.loc 1 1212 0
 2140 002e FB7B     		ldrb	r3, [r7, #15]	@ zero_extendqisi2
1213:Libraries/STM32F10x_StdPeriph_Driver/src/stm32f10x_adc.c **** }
 2141              		.loc 1 1213 0
 2142 0030 1846     		mov	r0, r3
 2143 0032 07F11407 		add	r7, r7, #20
 2144 0036 BD46     		mov	sp, r7
 2145 0038 80BC     		pop	{r7}
 2146 003a 7047     		bx	lr
 2147              		.cfi_endproc
 2148              	.LFE61:
 2150              		.section	.text.ADC_ClearFlag,"ax",%progbits
 2151              		.align	2
 2152              		.global	ADC_ClearFlag
 2153              		.thumb
 2154              		.thumb_func
 2156              	ADC_ClearFlag:
 2157              	.LFB62:
1214:Libraries/STM32F10x_StdPeriph_Driver/src/stm32f10x_adc.c **** 
1215:Libraries/STM32F10x_StdPeriph_Driver/src/stm32f10x_adc.c **** /**
1216:Libraries/STM32F10x_StdPeriph_Driver/src/stm32f10x_adc.c ****   * @brief  Clears the ADCx's pending flags.
1217:Libraries/STM32F10x_StdPeriph_Driver/src/stm32f10x_adc.c ****   * @param  ADCx: where x can be 1, 2 or 3 to select the ADC peripheral.
1218:Libraries/STM32F10x_StdPeriph_Driver/src/stm32f10x_adc.c ****   * @param  ADC_FLAG: specifies the flag to clear. 
1219:Libraries/STM32F10x_StdPeriph_Driver/src/stm32f10x_adc.c ****   *   This parameter can be any combination of the following values:
1220:Libraries/STM32F10x_StdPeriph_Driver/src/stm32f10x_adc.c ****   *     @arg ADC_FLAG_AWD: Analog watchdog flag
1221:Libraries/STM32F10x_StdPeriph_Driver/src/stm32f10x_adc.c ****   *     @arg ADC_FLAG_EOC: End of conversion flag
1222:Libraries/STM32F10x_StdPeriph_Driver/src/stm32f10x_adc.c ****   *     @arg ADC_FLAG_JEOC: End of injected group conversion flag
1223:Libraries/STM32F10x_StdPeriph_Driver/src/stm32f10x_adc.c ****   *     @arg ADC_FLAG_JSTRT: Start of injected group conversion flag
1224:Libraries/STM32F10x_StdPeriph_Driver/src/stm32f10x_adc.c ****   *     @arg ADC_FLAG_STRT: Start of regular group conversion flag
1225:Libraries/STM32F10x_StdPeriph_Driver/src/stm32f10x_adc.c ****   * @retval None
1226:Libraries/STM32F10x_StdPeriph_Driver/src/stm32f10x_adc.c ****   */
1227:Libraries/STM32F10x_StdPeriph_Driver/src/stm32f10x_adc.c **** void ADC_ClearFlag(ADC_TypeDef* ADCx, uint8_t ADC_FLAG)
1228:Libraries/STM32F10x_StdPeriph_Driver/src/stm32f10x_adc.c **** {
 2158              		.loc 1 1228 0
 2159              		.cfi_startproc
 2160              		@ args = 0, pretend = 0, frame = 8
 2161              		@ frame_needed = 1, uses_anonymous_args = 0
 2162              		@ link register save eliminated.
 2163 0000 80B4     		push	{r7}
 2164              	.LCFI98:
 2165              		.cfi_def_cfa_offset 4
 2166 0002 83B0     		sub	sp, sp, #12
 2167              	.LCFI99:
 2168              		.cfi_def_cfa_offset 16
 2169 0004 00AF     		add	r7, sp, #0
 2170              		.cfi_offset 7, -4
 2171              	.LCFI100:
 2172              		.cfi_def_cfa_register 7
 2173 0006 7860     		str	r0, [r7, #4]
 2174 0008 0B46     		mov	r3, r1
 2175 000a FB70     		strb	r3, [r7, #3]
1229:Libraries/STM32F10x_StdPeriph_Driver/src/stm32f10x_adc.c ****   /* Check the parameters */
1230:Libraries/STM32F10x_StdPeriph_Driver/src/stm32f10x_adc.c ****   assert_param(IS_ADC_ALL_PERIPH(ADCx));
1231:Libraries/STM32F10x_StdPeriph_Driver/src/stm32f10x_adc.c ****   assert_param(IS_ADC_CLEAR_FLAG(ADC_FLAG));
1232:Libraries/STM32F10x_StdPeriph_Driver/src/stm32f10x_adc.c ****   /* Clear the selected ADC flags */
1233:Libraries/STM32F10x_StdPeriph_Driver/src/stm32f10x_adc.c ****   ADCx->SR = ~(uint32_t)ADC_FLAG;
 2176              		.loc 1 1233 0
 2177 000c FB78     		ldrb	r3, [r7, #3]	@ zero_extendqisi2
 2178 000e 6FEA0302 		mvn	r2, r3
 2179 0012 7B68     		ldr	r3, [r7, #4]
 2180 0014 1A60     		str	r2, [r3, #0]
1234:Libraries/STM32F10x_StdPeriph_Driver/src/stm32f10x_adc.c **** }
 2181              		.loc 1 1234 0
 2182 0016 07F10C07 		add	r7, r7, #12
 2183 001a BD46     		mov	sp, r7
 2184 001c 80BC     		pop	{r7}
 2185 001e 7047     		bx	lr
 2186              		.cfi_endproc
 2187              	.LFE62:
 2189              		.section	.text.ADC_GetITStatus,"ax",%progbits
 2190              		.align	2
 2191              		.global	ADC_GetITStatus
 2192              		.thumb
 2193              		.thumb_func
 2195              	ADC_GetITStatus:
 2196              	.LFB63:
1235:Libraries/STM32F10x_StdPeriph_Driver/src/stm32f10x_adc.c **** 
1236:Libraries/STM32F10x_StdPeriph_Driver/src/stm32f10x_adc.c **** /**
1237:Libraries/STM32F10x_StdPeriph_Driver/src/stm32f10x_adc.c ****   * @brief  Checks whether the specified ADC interrupt has occurred or not.
1238:Libraries/STM32F10x_StdPeriph_Driver/src/stm32f10x_adc.c ****   * @param  ADCx: where x can be 1, 2 or 3 to select the ADC peripheral.
1239:Libraries/STM32F10x_StdPeriph_Driver/src/stm32f10x_adc.c ****   * @param  ADC_IT: specifies the ADC interrupt source to check. 
1240:Libraries/STM32F10x_StdPeriph_Driver/src/stm32f10x_adc.c ****   *   This parameter can be one of the following values:
1241:Libraries/STM32F10x_StdPeriph_Driver/src/stm32f10x_adc.c ****   *     @arg ADC_IT_EOC: End of conversion interrupt mask
1242:Libraries/STM32F10x_StdPeriph_Driver/src/stm32f10x_adc.c ****   *     @arg ADC_IT_AWD: Analog watchdog interrupt mask
1243:Libraries/STM32F10x_StdPeriph_Driver/src/stm32f10x_adc.c ****   *     @arg ADC_IT_JEOC: End of injected conversion interrupt mask
1244:Libraries/STM32F10x_StdPeriph_Driver/src/stm32f10x_adc.c ****   * @retval The new state of ADC_IT (SET or RESET).
1245:Libraries/STM32F10x_StdPeriph_Driver/src/stm32f10x_adc.c ****   */
1246:Libraries/STM32F10x_StdPeriph_Driver/src/stm32f10x_adc.c **** ITStatus ADC_GetITStatus(ADC_TypeDef* ADCx, uint16_t ADC_IT)
1247:Libraries/STM32F10x_StdPeriph_Driver/src/stm32f10x_adc.c **** {
 2197              		.loc 1 1247 0
 2198              		.cfi_startproc
 2199              		@ args = 0, pretend = 0, frame = 24
 2200              		@ frame_needed = 1, uses_anonymous_args = 0
 2201              		@ link register save eliminated.
 2202 0000 80B4     		push	{r7}
 2203              	.LCFI101:
 2204              		.cfi_def_cfa_offset 4
 2205 0002 87B0     		sub	sp, sp, #28
 2206              	.LCFI102:
 2207              		.cfi_def_cfa_offset 32
 2208 0004 00AF     		add	r7, sp, #0
 2209              		.cfi_offset 7, -4
 2210              	.LCFI103:
 2211              		.cfi_def_cfa_register 7
 2212 0006 7860     		str	r0, [r7, #4]
 2213 0008 0B46     		mov	r3, r1
 2214 000a 7B80     		strh	r3, [r7, #2]	@ movhi
1248:Libraries/STM32F10x_StdPeriph_Driver/src/stm32f10x_adc.c ****   ITStatus bitstatus = RESET;
 2215              		.loc 1 1248 0
 2216 000c 4FF00003 		mov	r3, #0
 2217 0010 FB73     		strb	r3, [r7, #15]
1249:Libraries/STM32F10x_StdPeriph_Driver/src/stm32f10x_adc.c ****   uint32_t itmask = 0, enablestatus = 0;
 2218              		.loc 1 1249 0
 2219 0012 4FF00003 		mov	r3, #0
 2220 0016 3B61     		str	r3, [r7, #16]
 2221 0018 4FF00003 		mov	r3, #0
 2222 001c 7B61     		str	r3, [r7, #20]
1250:Libraries/STM32F10x_StdPeriph_Driver/src/stm32f10x_adc.c ****   /* Check the parameters */
1251:Libraries/STM32F10x_StdPeriph_Driver/src/stm32f10x_adc.c ****   assert_param(IS_ADC_ALL_PERIPH(ADCx));
1252:Libraries/STM32F10x_StdPeriph_Driver/src/stm32f10x_adc.c ****   assert_param(IS_ADC_GET_IT(ADC_IT));
1253:Libraries/STM32F10x_StdPeriph_Driver/src/stm32f10x_adc.c ****   /* Get the ADC IT index */
1254:Libraries/STM32F10x_StdPeriph_Driver/src/stm32f10x_adc.c ****   itmask = ADC_IT >> 8;
 2223              		.loc 1 1254 0
 2224 001e 7B88     		ldrh	r3, [r7, #2]
 2225 0020 4FEA1323 		lsr	r3, r3, #8
 2226 0024 9BB2     		uxth	r3, r3
 2227 0026 3B61     		str	r3, [r7, #16]
1255:Libraries/STM32F10x_StdPeriph_Driver/src/stm32f10x_adc.c ****   /* Get the ADC_IT enable bit status */
1256:Libraries/STM32F10x_StdPeriph_Driver/src/stm32f10x_adc.c ****   enablestatus = (ADCx->CR1 & (uint8_t)ADC_IT) ;
 2228              		.loc 1 1256 0
 2229 0028 7B68     		ldr	r3, [r7, #4]
 2230 002a 5A68     		ldr	r2, [r3, #4]
 2231 002c 7B88     		ldrh	r3, [r7, #2]	@ movhi
 2232 002e DBB2     		uxtb	r3, r3
 2233 0030 02EA0303 		and	r3, r2, r3
 2234 0034 7B61     		str	r3, [r7, #20]
1257:Libraries/STM32F10x_StdPeriph_Driver/src/stm32f10x_adc.c ****   /* Check the status of the specified ADC interrupt */
1258:Libraries/STM32F10x_StdPeriph_Driver/src/stm32f10x_adc.c ****   if (((ADCx->SR & itmask) != (uint32_t)RESET) && enablestatus)
 2235              		.loc 1 1258 0
 2236 0036 7B68     		ldr	r3, [r7, #4]
 2237 0038 1A68     		ldr	r2, [r3, #0]
 2238 003a 3B69     		ldr	r3, [r7, #16]
 2239 003c 02EA0303 		and	r3, r2, r3
 2240 0040 002B     		cmp	r3, #0
 2241 0042 06D0     		beq	.L112
 2242 0044 7B69     		ldr	r3, [r7, #20]
 2243 0046 002B     		cmp	r3, #0
 2244 0048 03D0     		beq	.L112
1259:Libraries/STM32F10x_StdPeriph_Driver/src/stm32f10x_adc.c ****   {
1260:Libraries/STM32F10x_StdPeriph_Driver/src/stm32f10x_adc.c ****     /* ADC_IT is set */
1261:Libraries/STM32F10x_StdPeriph_Driver/src/stm32f10x_adc.c ****     bitstatus = SET;
 2245              		.loc 1 1261 0
 2246 004a 4FF00103 		mov	r3, #1
 2247 004e FB73     		strb	r3, [r7, #15]
 2248              		.loc 1 1258 0
 2249 0050 02E0     		b	.L113
 2250              	.L112:
1262:Libraries/STM32F10x_StdPeriph_Driver/src/stm32f10x_adc.c ****   }
1263:Libraries/STM32F10x_StdPeriph_Driver/src/stm32f10x_adc.c ****   else
1264:Libraries/STM32F10x_StdPeriph_Driver/src/stm32f10x_adc.c ****   {
1265:Libraries/STM32F10x_StdPeriph_Driver/src/stm32f10x_adc.c ****     /* ADC_IT is reset */
1266:Libraries/STM32F10x_StdPeriph_Driver/src/stm32f10x_adc.c ****     bitstatus = RESET;
 2251              		.loc 1 1266 0
 2252 0052 4FF00003 		mov	r3, #0
 2253 0056 FB73     		strb	r3, [r7, #15]
 2254              	.L113:
1267:Libraries/STM32F10x_StdPeriph_Driver/src/stm32f10x_adc.c ****   }
1268:Libraries/STM32F10x_StdPeriph_Driver/src/stm32f10x_adc.c ****   /* Return the ADC_IT status */
1269:Libraries/STM32F10x_StdPeriph_Driver/src/stm32f10x_adc.c ****   return  bitstatus;
 2255              		.loc 1 1269 0
 2256 0058 FB7B     		ldrb	r3, [r7, #15]	@ zero_extendqisi2
1270:Libraries/STM32F10x_StdPeriph_Driver/src/stm32f10x_adc.c **** }
 2257              		.loc 1 1270 0
 2258 005a 1846     		mov	r0, r3
 2259 005c 07F11C07 		add	r7, r7, #28
 2260 0060 BD46     		mov	sp, r7
 2261 0062 80BC     		pop	{r7}
 2262 0064 7047     		bx	lr
 2263              		.cfi_endproc
 2264              	.LFE63:
 2266 0066 00BF     		.section	.text.ADC_ClearITPendingBit,"ax",%progbits
 2267              		.align	2
 2268              		.global	ADC_ClearITPendingBit
 2269              		.thumb
 2270              		.thumb_func
 2272              	ADC_ClearITPendingBit:
 2273              	.LFB64:
1271:Libraries/STM32F10x_StdPeriph_Driver/src/stm32f10x_adc.c **** 
1272:Libraries/STM32F10x_StdPeriph_Driver/src/stm32f10x_adc.c **** /**
1273:Libraries/STM32F10x_StdPeriph_Driver/src/stm32f10x_adc.c ****   * @brief  Clears the ADCxs interrupt pending bits.
1274:Libraries/STM32F10x_StdPeriph_Driver/src/stm32f10x_adc.c ****   * @param  ADCx: where x can be 1, 2 or 3 to select the ADC peripheral.
1275:Libraries/STM32F10x_StdPeriph_Driver/src/stm32f10x_adc.c ****   * @param  ADC_IT: specifies the ADC interrupt pending bit to clear.
1276:Libraries/STM32F10x_StdPeriph_Driver/src/stm32f10x_adc.c ****   *   This parameter can be any combination of the following values:
1277:Libraries/STM32F10x_StdPeriph_Driver/src/stm32f10x_adc.c ****   *     @arg ADC_IT_EOC: End of conversion interrupt mask
1278:Libraries/STM32F10x_StdPeriph_Driver/src/stm32f10x_adc.c ****   *     @arg ADC_IT_AWD: Analog watchdog interrupt mask
1279:Libraries/STM32F10x_StdPeriph_Driver/src/stm32f10x_adc.c ****   *     @arg ADC_IT_JEOC: End of injected conversion interrupt mask
1280:Libraries/STM32F10x_StdPeriph_Driver/src/stm32f10x_adc.c ****   * @retval None
1281:Libraries/STM32F10x_StdPeriph_Driver/src/stm32f10x_adc.c ****   */
1282:Libraries/STM32F10x_StdPeriph_Driver/src/stm32f10x_adc.c **** void ADC_ClearITPendingBit(ADC_TypeDef* ADCx, uint16_t ADC_IT)
1283:Libraries/STM32F10x_StdPeriph_Driver/src/stm32f10x_adc.c **** {
 2274              		.loc 1 1283 0
 2275              		.cfi_startproc
 2276              		@ args = 0, pretend = 0, frame = 16
 2277              		@ frame_needed = 1, uses_anonymous_args = 0
 2278              		@ link register save eliminated.
 2279 0000 80B4     		push	{r7}
 2280              	.LCFI104:
 2281              		.cfi_def_cfa_offset 4
 2282 0002 85B0     		sub	sp, sp, #20
 2283              	.LCFI105:
 2284              		.cfi_def_cfa_offset 24
 2285 0004 00AF     		add	r7, sp, #0
 2286              		.cfi_offset 7, -4
 2287              	.LCFI106:
 2288              		.cfi_def_cfa_register 7
 2289 0006 7860     		str	r0, [r7, #4]
 2290 0008 0B46     		mov	r3, r1
 2291 000a 7B80     		strh	r3, [r7, #2]	@ movhi
1284:Libraries/STM32F10x_StdPeriph_Driver/src/stm32f10x_adc.c ****   uint8_t itmask = 0;
 2292              		.loc 1 1284 0
 2293 000c 4FF00003 		mov	r3, #0
 2294 0010 FB73     		strb	r3, [r7, #15]
1285:Libraries/STM32F10x_StdPeriph_Driver/src/stm32f10x_adc.c ****   /* Check the parameters */
1286:Libraries/STM32F10x_StdPeriph_Driver/src/stm32f10x_adc.c ****   assert_param(IS_ADC_ALL_PERIPH(ADCx));
1287:Libraries/STM32F10x_StdPeriph_Driver/src/stm32f10x_adc.c ****   assert_param(IS_ADC_IT(ADC_IT));
1288:Libraries/STM32F10x_StdPeriph_Driver/src/stm32f10x_adc.c ****   /* Get the ADC IT index */
1289:Libraries/STM32F10x_StdPeriph_Driver/src/stm32f10x_adc.c ****   itmask = (uint8_t)(ADC_IT >> 8);
 2295              		.loc 1 1289 0
 2296 0012 7B88     		ldrh	r3, [r7, #2]
 2297 0014 4FEA1323 		lsr	r3, r3, #8
 2298 0018 9BB2     		uxth	r3, r3
 2299 001a FB73     		strb	r3, [r7, #15]
1290:Libraries/STM32F10x_StdPeriph_Driver/src/stm32f10x_adc.c ****   /* Clear the selected ADC interrupt pending bits */
1291:Libraries/STM32F10x_StdPeriph_Driver/src/stm32f10x_adc.c ****   ADCx->SR = ~(uint32_t)itmask;
 2300              		.loc 1 1291 0
 2301 001c FB7B     		ldrb	r3, [r7, #15]	@ zero_extendqisi2
 2302 001e 6FEA0302 		mvn	r2, r3
 2303 0022 7B68     		ldr	r3, [r7, #4]
 2304 0024 1A60     		str	r2, [r3, #0]
1292:Libraries/STM32F10x_StdPeriph_Driver/src/stm32f10x_adc.c **** }
 2305              		.loc 1 1292 0
 2306 0026 07F11407 		add	r7, r7, #20
 2307 002a BD46     		mov	sp, r7
 2308 002c 80BC     		pop	{r7}
 2309 002e 7047     		bx	lr
 2310              		.cfi_endproc
 2311              	.LFE64:
 2313              		.text
 2314              	.Letext0: